Archive member included because of file (symbol)

c:/program files (x86)/microchip/mplabc32/v2.01/bin/../lib/gcc/pic32mx/4.5.1/../../../../pic32mx/lib\libc.a(memcpy.o)
                              Object - MDD File System-SD Card\battle-p.o (memcpy)
c:/program files (x86)/microchip/mplabc32/v2.01/bin/../lib/gcc/pic32mx/4.5.1/../../../../pic32mx/lib\libc.a(memset.o)
                              Object - MDD File System-SD Card\FSIO.o (memset)
c:/program files (x86)/microchip/mplabc32/v2.01/bin/../lib/gcc/pic32mx/4.5.1/../../../../pic32mx/lib\libc.a(strcpy.o)
                              Object - MDD File System-SD Card\FSIO.o (strcpy)
c:/program files (x86)/microchip/mplabc32/v2.01/bin/../lib/gcc/pic32mx/4.5.1/../../../../pic32mx/lib\libc.a(strlen.o)
                              Object - MDD File System-SD Card\FSIO.o (strlen)
c:/program files (x86)/microchip/mplabc32/v2.01/bin/../lib/gcc/pic32mx/4.5.1/../../../../pic32mx/lib\libc.a(general-exception.o)
                              c:/program files (x86)/microchip/mplabc32/v2.01/bin/../lib/gcc/pic32mx/4.5.1/../../../../pic32mx/lib/crt0.o (_general_exception_context)
c:/program files (x86)/microchip/mplabc32/v2.01/bin/../lib/gcc/pic32mx/4.5.1/../../../../pic32mx/lib\libc.a(ctypef.o)
                              Object - MDD File System-SD Card\FSIO.o (tolower)
c:/program files (x86)/microchip/mplabc32/v2.01/bin/../lib/gcc/pic32mx/4.5.1/../../../../pic32mx/lib\libc.a(rand.o)
                              Object - MDD File System-SD Card\global.o (srand)
c:/program files (x86)/microchip/mplabc32/v2.01/bin/../lib/gcc/pic32mx/4.5.1/../../../../pic32mx/lib\libc.a(strcat.o)
                              Object - MDD File System-SD Card\global.o (strcat)
c:/program files (x86)/microchip/mplabc32/v2.01/bin/../lib/gcc/pic32mx/4.5.1/../../../../pic32mx/lib\libc.a(strncpy.o)
                              Object - MDD File System-SD Card\FSIO.o (strncpy)
c:/program files (x86)/microchip/mplabc32/v2.01/bin/../lib/gcc/pic32mx/4.5.1/../../../../pic32mx/lib\libc.a(sprintf_cdnopsuxX.eo)
                              Object - MDD File System-SD Card\global.o (_sprintf_cdnopsuxX)
c:/program files (x86)/microchip/mplabc32/v2.01/bin/../lib/gcc/pic32mx/4.5.1/../../../../pic32mx/lib\libc.a(sprintf_s.eo)
                              Object - MDD File System-SD Card\battle-p.o (_sprintf_s)
c:/program files (x86)/microchip/mplabc32/v2.01/bin/../lib/gcc/pic32mx/4.5.1/../../../../pic32mx/lib\libc.a(default-general-exception-handler.o)
                              c:/program files (x86)/microchip/mplabc32/v2.01/bin/../lib/gcc/pic32mx/4.5.1/../../../../pic32mx/lib\libc.a(general-exception.o) (_general_exception_handler)
c:/program files (x86)/microchip/mplabc32/v2.01/bin/../lib/gcc/pic32mx/4.5.1/../../../../pic32mx/lib\libc.a(default-bootstrap-exception-handler.o)
                              c:/program files (x86)/microchip/mplabc32/v2.01/bin/../lib/gcc/pic32mx/4.5.1/../../../../pic32mx/lib/crt0.o (_bootstrap_exception_handler)
c:/program files (x86)/microchip/mplabc32/v2.01/bin/../lib/gcc/pic32mx/4.5.1/../../../../pic32mx/lib\libc.a(default-on-reset.o)
                              c:/program files (x86)/microchip/mplabc32/v2.01/bin/../lib/gcc/pic32mx/4.5.1/../../../../pic32mx/lib/crt0.o (_on_reset)
c:/program files (x86)/microchip/mplabc32/v2.01/bin/../lib/gcc/pic32mx/4.5.1/../../../../pic32mx/lib\libc.a(default-on-bootstrap.o)
                              c:/program files (x86)/microchip/mplabc32/v2.01/bin/../lib/gcc/pic32mx/4.5.1/../../../../pic32mx/lib/crt0.o (_on_bootstrap)
c:/program files (x86)/microchip/mplabc32/v2.01/bin/../lib/gcc/pic32mx/4.5.1/../../../../pic32mx/lib\libc.a(default-nmi-handler.o)
                              c:/program files (x86)/microchip/mplabc32/v2.01/bin/../lib/gcc/pic32mx/4.5.1/../../../../pic32mx/lib/crt0.o (_nmi_handler)
c:/program files (x86)/microchip/mplabc32/v2.01/bin/../lib/gcc/pic32mx/4.5.1/../../../../pic32mx/lib\libc.a(ctype.o)
                              c:/program files (x86)/microchip/mplabc32/v2.01/bin/../lib/gcc/pic32mx/4.5.1/../../../../pic32mx/lib\libc.a(ctypef.o) (_ctype)
c:/program files (x86)/microchip/mplabc32/v2.01/bin/../lib/gcc/pic32mx/4.5.1/../../../../pic32mx/lib\libc.a(doprnt_cdnopsuxX.eo)
                              c:/program files (x86)/microchip/mplabc32/v2.01/bin/../lib/gcc/pic32mx/4.5.1/../../../../pic32mx/lib\libc.a(sprintf_cdnopsuxX.eo) (_vfprintf_cdnopsuxX)
c:/program files (x86)/microchip/mplabc32/v2.01/bin/../lib/gcc/pic32mx/4.5.1/../../../../pic32mx/lib\libc.a(doprnt_s.eo)
                              c:/program files (x86)/microchip/mplabc32/v2.01/bin/../lib/gcc/pic32mx/4.5.1/../../../../pic32mx/lib\libc.a(sprintf_s.eo) (_vfprintf_s)
c:/program files (x86)/microchip/mplabc32/v2.01/bin/../lib/gcc/pic32mx/4.5.1/../../../../pic32mx/lib\libc.a(_fputc_simple.o)
                              c:/program files (x86)/microchip/mplabc32/v2.01/bin/../lib/gcc/pic32mx/4.5.1/../../../../pic32mx/lib\libc.a(doprnt_cdnopsuxX.eo) (fputc)
c:/program files (x86)/microchip/mplabc32/v2.01/bin/../lib/gcc/pic32mx/4.5.1/../../../../pic32mx/lib\libc.a(write.o)
                              c:/program files (x86)/microchip/mplabc32/v2.01/bin/../lib/gcc/pic32mx/4.5.1/../../../../pic32mx/lib\libc.a(_fputc_simple.o) (write)
c:/program files (x86)/microchip/mplabc32/v2.01/bin/../lib/gcc/pic32mx/4.5.1/../../../../pic32mx/lib\libc.a(_iob.o)
                              c:/program files (x86)/microchip/mplabc32/v2.01/bin/../lib/gcc/pic32mx/4.5.1/../../../../pic32mx/lib\libc.a(_fputc_simple.o) (_outdone)
c:/program files (x86)/microchip/mplabc32/v2.01/bin/../lib/gcc/pic32mx/4.5.1/../../../../pic32mx/lib\libc.a(_flsbuf_simple.o)
                              c:/program files (x86)/microchip/mplabc32/v2.01/bin/../lib/gcc/pic32mx/4.5.1/../../../../pic32mx/lib\libc.a(_fputc_simple.o) (_flsbuf)
c:/program files (x86)/microchip/mplabc32/v2.01/bin/../lib/gcc/pic32mx/4.5.1/../../../../pic32mx/lib\libc.a(_mon_putc.o)
                              c:/program files (x86)/microchip/mplabc32/v2.01/bin/../lib/gcc/pic32mx/4.5.1/../../../../pic32mx/lib\libc.a(write.o) (_mon_putc)
c:/program files (x86)/microchip/mplabc32/v2.01/bin/../lib/gcc/pic32mx/4.5.1/../../../../pic32mx/lib\libc.a(c32_uart.o)
                              c:/program files (x86)/microchip/mplabc32/v2.01/bin/../lib/gcc/pic32mx/4.5.1/../../../../pic32mx/lib\libc.a(_mon_putc.o) (__C32_UART)
c:/program files (x86)/microchip/mplabc32/v2.01/bin/../lib/gcc/pic32mx/4.5.1/../../../../pic32mx/lib\libm.a(fp32.o)
                              Object - MDD File System-SD Card\battle-p.o (fpadd)
c:/program files (x86)/microchip/mplabc32/v2.01/bin/../lib/gcc/pic32mx/4.5.1/../../../../pic32mx/lib\libmchp_peripheral_32MX675F512H.a(pcache.o)
                              Object - MDD File System-SD Card\Demonstration1.o (CheKseg0CacheOn)
c:/program files (x86)/microchip/mplabc32/v2.01/bin/../lib/gcc/pic32mx/4.5.1/../../../../pic32mx/lib\libmchp_peripheral_32MX675F512H.a(int_disable_interrupts_lib.o)
                              Object - MDD File System-SD Card\Demonstration1.o (INTDisableInterrupts)
c:/program files (x86)/microchip/mplabc32/v2.01/bin/../lib/gcc/pic32mx/4.5.1/../../../../pic32mx/lib\libmchp_peripheral_32MX675F512H.a(int_restore_interrupts_lib.o)
                              Object - MDD File System-SD Card\Demonstration1.o (INTRestoreInterrupts)
c:/program files (x86)/microchip/mplabc32/v2.01/bin/../lib/gcc/pic32mx/4.5.1/../../../../pic32mx/lib\libmchp_peripheral_32MX675F512H.a(int_enable_mv_int_lib.o)
                              Object - MDD File System-SD Card\Demonstration1.o (INTEnableSystemMultiVectoredInt)
c:/program files (x86)/microchip/mplabc32/v2.01/bin/../lib/gcc/pic32mx/4.5.1/../../../../pic32mx/lib\libmchp_peripheral_32MX675F512H.a(rtcc_open_lib.o)
                              Object - MDD File System-SD Card\Demonstration1.o (RtccOpen)
c:/program files (x86)/microchip/mplabc32/v2.01/bin/../lib/gcc/pic32mx/4.5.1/../../../../pic32mx/lib\libmchp_peripheral_32MX675F512H.a(spi_getc_spi2_lib_legacy.o)
                              Object - MDD File System-SD Card\SD-SPI.o (getcSPI2)
c:/program files (x86)/microchip/mplabc32/v2.01/bin/../lib/gcc/pic32mx/4.5.1/../../../../pic32mx/lib\libmchp_peripheral_32MX675F512H.a(spi_open_spi2_lib_legacy.o)
                              Object - MDD File System-SD Card\SD-SPI.o (OpenSPI2)
c:/program files (x86)/microchip/mplabc32/v2.01/bin/../lib/gcc/pic32mx/4.5.1/../../../../pic32mx/lib\libmchp_peripheral_32MX675F512H.a(spi_brg_tbl_lib_legacy.o)
                              c:/program files (x86)/microchip/mplabc32/v2.01/bin/../lib/gcc/pic32mx/4.5.1/../../../../pic32mx/lib\libmchp_peripheral_32MX675F512H.a(spi_open_spi2_lib_legacy.o) (_SpiBrgConvTbl)
c:/program files (x86)/microchip/mplabc32/v2.01/bin/../lib/gcc/pic32mx/4.5.1/../../../../pic32mx/lib\libmchp_peripheral_32MX675F512H.a(int_enable_interrupts_lib.o)
                              c:/program files (x86)/microchip/mplabc32/v2.01/bin/../lib/gcc/pic32mx/4.5.1/../../../../pic32mx/lib\libmchp_peripheral_32MX675F512H.a(int_enable_mv_int_lib.o) (INTEnableInterrupts)
c:/program files (x86)/microchip/mplabc32/v2.01/bin/../lib/gcc/pic32mx/4.5.1/../../../../pic32mx/lib\libmchp_peripheral_32MX675F512H.a(int_tbl_lib.o)
                              c:/program files (x86)/microchip/mplabc32/v2.01/bin/../lib/gcc/pic32mx/4.5.1/../../../../pic32mx/lib\libmchp_peripheral_32MX675F512H.a(rtcc_open_lib.o) (INTClearFlag)
c:/program files (x86)/microchip/mplabc32/v2.01/bin/../lib/gcc/pic32mx/4.5.1/../../../../pic32mx/lib\libmchp_peripheral_32MX675F512H.a(_rtcc_wait_clock_off_lib.o)
                              c:/program files (x86)/microchip/mplabc32/v2.01/bin/../lib/gcc/pic32mx/4.5.1/../../../../pic32mx/lib\libmchp_peripheral_32MX675F512H.a(rtcc_open_lib.o) (_RtccWaitClockOff)
c:/program files (x86)/microchip/mplabc32/v2.01/bin/../lib/gcc/pic32mx/4.5.1/../../../../pic32mx/lib\libmchp_peripheral_32MX675F512H.a(read_core_timer_lib.o)
                              c:/program files (x86)/microchip/mplabc32/v2.01/bin/../lib/gcc/pic32mx/4.5.1/../../../../pic32mx/lib\libmchp_peripheral_32MX675F512H.a(_rtcc_wait_clock_off_lib.o) (ReadCoreTimer)
c:/program files (x86)/microchip/mplabc32/v2.01/bin/../lib/gcc/pic32mx/4.5.1\libgcc.a(_udivdi3.o)
                              c:/program files (x86)/microchip/mplabc32/v2.01/bin/../lib/gcc/pic32mx/4.5.1/../../../../pic32mx/lib\libc.a(doprnt_cdnopsuxX.eo) (__udivdi3)
c:/program files (x86)/microchip/mplabc32/v2.01/bin/../lib/gcc/pic32mx/4.5.1\libgcc.a(_umoddi3.o)
                              c:/program files (x86)/microchip/mplabc32/v2.01/bin/../lib/gcc/pic32mx/4.5.1/../../../../pic32mx/lib\libc.a(doprnt_cdnopsuxX.eo) (__umoddi3)

Allocating common symbols
Common symbol       size              file

TENTACRUEL          0x34              Object - MDD File System-SD Card\game.o
BONECLUB            0x38              Object - MDD File System-SD Card\game.o
SELFDESTRUCT        0x38              Object - MDD File System-SD Card\game.o
WATERGUN            0x38              Object - MDD File System-SD Card\game.o
GROWLITHE           0x34              Object - MDD File System-SD Card\game.o
PSYBEAM             0x38              Object - MDD File System-SD Card\game.o
BLUE_ALAKAZAM       0x94              Object - MDD File System-SD Card\global.o
PERSIAN             0x34              Object - MDD File System-SD Card\game.o
SANDATTACK          0x38              Object - MDD File System-SD Card\game.o
GRIMER              0x34              Object - MDD File System-SD Card\game.o
WITHDRAW            0x38              Object - MDD File System-SD Card\game.o
NIDORINO            0x34              Object - MDD File System-SD Card\game.o
PORYGON             0x34              Object - MDD File System-SD Card\game.o
BITE                0x38              Object - MDD File System-SD Card\game.o
FLASH               0x38              Object - MDD File System-SD Card\game.o
GOLEM               0x34              Object - MDD File System-SD Card\game.o
gDataBuffer         0x200             Object - MDD File System-SD Card\FSIO.o
SLASH               0x38              Object - MDD File System-SD Card\game.o
SQUIRTLE            0x34              Object - MDD File System-SD Card\game.o
PRIMEAPE            0x34              Object - MDD File System-SD Card\game.o
tempDirectoryString
                    0x20a             Object - MDD File System-SD Card\FSIO.o
VICEGRIP            0x38              Object - MDD File System-SD Card\game.o
RAICHU              0x34              Object - MDD File System-SD Card\game.o
SWORDSDANCE         0x38              Object - MDD File System-SD Card\game.o
BARRIER             0x38              Object - MDD File System-SD Card\game.o
SHELLDER            0x34              Object - MDD File System-SD Card\game.o
HORSEA              0x34              Object - MDD File System-SD Card\game.o
CHARMANDER          0x34              Object - MDD File System-SD Card\game.o
KANGASKHAN          0x34              Object - MDD File System-SD Card\game.o
POISONGAS           0x38              Object - MDD File System-SD Card\game.o
CONFUSION           0x38              Object - MDD File System-SD Card\game.o
VULPIX              0x34              Object - MDD File System-SD Card\game.o
RED_CHARIZARD       0x94              Object - MDD File System-SD Card\global.o
EARTHQUAKE          0x38              Object - MDD File System-SD Card\game.o
SURF                0x38              Object - MDD File System-SD Card\game.o
NIDOKING            0x34              Object - MDD File System-SD Card\game.o
POLIWAG             0x34              Object - MDD File System-SD Card\game.o
MANKEY              0x34              Object - MDD File System-SD Card\game.o
BLUE_BLASTOISE      0x94              Object - MDD File System-SD Card\global.o
SEADRA              0x34              Object - MDD File System-SD Card\game.o
HEADBUTT            0x38              Object - MDD File System-SD Card\game.o
SPLASH              0x38              Object - MDD File System-SD Card\game.o
gFileSlotOpen       0x3               Object - MDD File System-SD Card\FSIO.o
THUNDERBOLT         0x38              Object - MDD File System-SD Card\game.o
SUBMISSION          0x38              Object - MDD File System-SD Card\game.o
MACHOP              0x34              Object - MDD File System-SD Card\game.o
SNORLAX             0x34              Object - MDD File System-SD Card\game.o
MDD_SDSPI_finalLBA  0x4               Object - MDD File System-SD Card\SD-SPI.o
STARMIE             0x34              Object - MDD File System-SD Card\game.o
fpkmn_menu          0x88              Object - MDD File System-SD Card\battle-p.o
RAZORLEAF           0x38              Object - MDD File System-SD Card\game.o
VICTREEBEL          0x34              Object - MDD File System-SD Card\game.o
EGGBOMB             0x38              Object - MDD File System-SD Card\game.o
MAGMAR              0x34              Object - MDD File System-SD Card\game.o
GEODUDE             0x34              Object - MDD File System-SD Card\game.o
CLEFAIRY            0x34              Object - MDD File System-SD Card\game.o
STRENGTH            0x38              Object - MDD File System-SD Card\game.o
HAUNTER             0x34              Object - MDD File System-SD Card\game.o
CHARIZARD           0x34              Object - MDD File System-SD Card\game.o
cwd                 0x44              Object - MDD File System-SD Card\FSIO.o
ICEPUNCH            0x38              Object - MDD File System-SD Card\game.o
DIGLETT             0x34              Object - MDD File System-SD Card\game.o
POLIWHIRL           0x34              Object - MDD File System-SD Card\game.o
DITTO               0x34              Object - MDD File System-SD Card\game.o
CONSTRICT           0x38              Object - MDD File System-SD Card\game.o
THUNDERSHOCK        0x38              Object - MDD File System-SD Card\game.o
KOFFING             0x34              Object - MDD File System-SD Card\game.o
BUTTERFREE          0x34              Object - MDD File System-SD Card\game.o
HORNDRILL           0x38              Object - MDD File System-SD Card\game.o
DIZZYPUNCH          0x38              Object - MDD File System-SD Card\game.o
fight_menu          0x88              Object - MDD File System-SD Card\battle-p.o
tempCWDobj          0x44              Object - MDD File System-SD Card\FSIO.o
CRABHAMMER          0x38              Object - MDD File System-SD Card\game.o
PIDGEOT             0x34              Object - MDD File System-SD Card\game.o
SMOKESCREEN         0x38              Object - MDD File System-SD Card\game.o
GRAVELER            0x34              Object - MDD File System-SD Card\game.o
gMediaSectorSize    0x2               Object - MDD File System-SD Card\SD-SPI.o
WEEZING             0x34              Object - MDD File System-SD Card\game.o
PSYCHIC             0x38              Object - MDD File System-SD Card\game.o
SANDSHREW           0x34              Object - MDD File System-SD Card\game.o
ELECTRODE           0x34              Object - MDD File System-SD Card\game.o
HYDROPUMP           0x38              Object - MDD File System-SD Card\game.o
AGILITY             0x38              Object - MDD File System-SD Card\game.o
EMBER               0x38              Object - MDD File System-SD Card\game.o
DRAGONAIR           0x34              Object - MDD File System-SD Card\game.o
msg                 0x200             Object - MDD File System-SD Card\battle-p.o
ROLLINGKICK         0x38              Object - MDD File System-SD Card\game.o
JOLTEON             0x34              Object - MDD File System-SD Card\game.o
DRILLPECK           0x38              Object - MDD File System-SD Card\game.o
PIDGEY              0x34              Object - MDD File System-SD Card\game.o
HYPNOSIS            0x38              Object - MDD File System-SD Card\game.o
EXPLOSION           0x38              Object - MDD File System-SD Card\game.o
WEEPINBELL          0x34              Object - MDD File System-SD Card\game.o
TACKLE              0x38              Object - MDD File System-SD Card\game.o
ELECTABUZZ          0x34              Object - MDD File System-SD Card\game.o
FISSURE             0x38              Object - MDD File System-SD Card\game.o
CONFUSERAY          0x38              Object - MDD File System-SD Card\game.o
BELLSPROUT          0x34              Object - MDD File System-SD Card\game.o
POISONSTING         0x38              Object - MDD File System-SD Card\game.o
recordFoundName     0x202             Object - MDD File System-SD Card\FSIO.o
MINIMIZE            0x38              Object - MDD File System-SD Card\game.o
SLOWBRO             0x34              Object - MDD File System-SD Card\game.o
ACIDARMOR           0x38              Object - MDD File System-SD Card\game.o
PIKACHU             0x34              Object - MDD File System-SD Card\game.o
FEAROW              0x34              Object - MDD File System-SD Card\game.o
STOMP               0x38              Object - MDD File System-SD Card\game.o
PARAS               0x34              Object - MDD File System-SD Card\game.o
ABRA                0x34              Object - MDD File System-SD Card\game.o
MAGIKARP            0x34              Object - MDD File System-SD Card\game.o
RHYHORN             0x34              Object - MDD File System-SD Card\game.o
asciiFilename       0x4               Object - MDD File System-SD Card\FSIO.o
BLASTOISE           0x34              Object - MDD File System-SD Card\game.o
CLOYSTER            0x34              Object - MDD File System-SD Card\game.o
KARATECHOP          0x38              Object - MDD File System-SD Card\game.o
RATICATE            0x34              Object - MDD File System-SD Card\game.o
JYNX                0x34              Object - MDD File System-SD Card\game.o
OMANYTE             0x34              Object - MDD File System-SD Card\game.o
SANDSLASH           0x34              Object - MDD File System-SD Card\game.o
recordSearchLength  0x2               Object - MDD File System-SD Card\FSIO.o
ARBOK               0x34              Object - MDD File System-SD Card\game.o
LEECHLIFE           0x38              Object - MDD File System-SD Card\game.o
BLUE                0x34              Object - MDD File System-SD Card\battle-p.o
SCRATCH             0x38              Object - MDD File System-SD Card\game.o
HORNATTACK          0x38              Object - MDD File System-SD Card\game.o
KRABBY              0x34              Object - MDD File System-SD Card\game.o
LICK                0x38              Object - MDD File System-SD Card\game.o
DOUBLETEAM          0x38              Object - MDD File System-SD Card\game.o
ROCKSLIDE           0x38              Object - MDD File System-SD Card\game.o
gFATBuffer          0x200             Object - MDD File System-SD Card\FSIO.o
NINETALES           0x34              Object - MDD File System-SD Card\game.o
CHARMELEON          0x34              Object - MDD File System-SD Card\game.o
utf16Filename       0x4               Object - MDD File System-SD Card\FSIO.o
text                0x200             Object - MDD File System-SD Card\battle-p.o
MACHOKE             0x34              Object - MDD File System-SD Card\game.o
gFileArray          0xcc              Object - MDD File System-SD Card\FSIO.o
FatRootDirClusterValue
                    0x4               Object - MDD File System-SD Card\FSIO.o
KINGLER             0x34              Object - MDD File System-SD Card\game.o
WEEDLE              0x34              Object - MDD File System-SD Card\game.o
VENONAT             0x34              Object - MDD File System-SD Card\game.o
MAGNEMITE           0x34              Object - MDD File System-SD Card\game.o
PINMISSILE          0x38              Object - MDD File System-SD Card\game.o
DEWGONG             0x34              Object - MDD File System-SD Card\game.o
NIDORAN_M           0x34              Object - MDD File System-SD Card\game.o
recordSearchName    0x202             Object - MDD File System-SD Card\FSIO.o
SMOG                0x38              Object - MDD File System-SD Card\game.o
gDiskData           0x26              Object - MDD File System-SD Card\FSIO.o
NIDORAN_F           0x34              Object - MDD File System-SD Card\game.o
KABUTO              0x34              Object - MDD File System-SD Card\game.o
BUBBLE              0x38              Object - MDD File System-SD Card\game.o
LOVELYKISS          0x38              Object - MDD File System-SD Card\game.o
HYPERBEAM           0x38              Object - MDD File System-SD Card\game.o
fileFoundString     0x20a             Object - MDD File System-SD Card\FSIO.o
battle              0x18              Object - MDD File System-SD Card\battle-p.o
MAROWAK             0x34              Object - MDD File System-SD Card\game.o
MACHAMP             0x34              Object - MDD File System-SD Card\game.o
run_menu            0x88              Object - MDD File System-SD Card\battle-p.o
RAPIDASH            0x34              Object - MDD File System-SD Card\game.o
PINSIR              0x34              Object - MDD File System-SD Card\game.o
fileNameLength      0x2               Object - MDD File System-SD Card\FSIO.o
MEGAPUNCH           0x38              Object - MDD File System-SD Card\game.o
LAPRAS              0x34              Object - MDD File System-SD Card\game.o
BLUE_ARCANINE       0x94              Object - MDD File System-SD Card\global.o
ODDISH              0x34              Object - MDD File System-SD Card\game.o
input_player        0x4               Object - MDD File System-SD Card\battle-p.o
THUNDER             0x38              Object - MDD File System-SD Card\game.o
EXEGGCUTE           0x34              Object - MDD File System-SD Card\game.o
SUPERSONIC          0x38              Object - MDD File System-SD Card\game.o
ABSORB              0x38              Object - MDD File System-SD Card\game.o
CUT                 0x38              Object - MDD File System-SD Card\game.o
ACID                0x38              Object - MDD File System-SD Card\game.o
GUST                0x38              Object - MDD File System-SD Card\game.o
DODRIO              0x34              Object - MDD File System-SD Card\game.o
HITMONCHAN          0x34              Object - MDD File System-SD Card\game.o
GASTLY              0x34              Object - MDD File System-SD Card\game.o
MEW                 0x34              Object - MDD File System-SD Card\game.o
VINEWHIP            0x38              Object - MDD File System-SD Card\game.o
TAILWHIP            0x38              Object - MDD File System-SD Card\game.o
GROWL               0x38              Object - MDD File System-SD Card\game.o
JIGGLYPUFF          0x34              Object - MDD File System-SD Card\game.o
SLAM                0x38              Object - MDD File System-SD Card\game.o
POUND               0x38              Object - MDD File System-SD Card\game.o
AMNESIA             0x38              Object - MDD File System-SD Card\game.o
FIREBLAST           0x38              Object - MDD File System-SD Card\game.o
PECK                0x38              Object - MDD File System-SD Card\game.o
PSYDUCK             0x34              Object - MDD File System-SD Card\game.o
OMASTAR             0x34              Object - MDD File System-SD Card\game.o
STARYU              0x34              Object - MDD File System-SD Card\game.o
SLEEPPOWDER         0x38              Object - MDD File System-SD Card\game.o
MEGAKICK            0x38              Object - MDD File System-SD Card\game.o
VAPOREON            0x34              Object - MDD File System-SD Card\game.o
MEDITATE            0x38              Object - MDD File System-SD Card\game.o
DRATINI             0x34              Object - MDD File System-SD Card\game.o
SEEL                0x34              Object - MDD File System-SD Card\game.o
ARCANINE            0x34              Object - MDD File System-SD Card\game.o
METAPOD             0x34              Object - MDD File System-SD Card\game.o
PAYDAY              0x38              Object - MDD File System-SD Card\game.o
SCYTHER             0x34              Object - MDD File System-SD Card\game.o
SHARPEN             0x38              Object - MDD File System-SD Card\game.o
THUNDERWAVE         0x38              Object - MDD File System-SD Card\game.o
EXEGGUTOR           0x34              Object - MDD File System-SD Card\game.o
SCREECH             0x38              Object - MDD File System-SD Card\game.o
EKANS               0x34              Object - MDD File System-SD Card\game.o
PARASECT            0x34              Object - MDD File System-SD Card\game.o
GOLBAT              0x34              Object - MDD File System-SD Card\game.o
BLIZZARD            0x38              Object - MDD File System-SD Card\game.o
AURORABEAM          0x38              Object - MDD File System-SD Card\game.o
MRMIME              0x34              Object - MDD File System-SD Card\game.o
MEGADRAIN           0x38              Object - MDD File System-SD Card\game.o
SPEAROW             0x34              Object - MDD File System-SD Card\game.o
RHYDON              0x34              Object - MDD File System-SD Card\game.o
WINGATTACK          0x38              Object - MDD File System-SD Card\game.o
KABUTOPS            0x34              Object - MDD File System-SD Card\game.o
VOLTORB             0x34              Object - MDD File System-SD Card\game.o
VILEPLUME           0x34              Object - MDD File System-SD Card\game.o
TOXIC               0x38              Object - MDD File System-SD Card\game.o
KADABRA             0x34              Object - MDD File System-SD Card\game.o
BODYSLAM            0x38              Object - MDD File System-SD Card\game.o
MUK                 0x34              Object - MDD File System-SD Card\game.o
DUGTRIO             0x34              Object - MDD File System-SD Card\game.o
TANGELA             0x34              Object - MDD File System-SD Card\game.o
GENGAR              0x34              Object - MDD File System-SD Card\game.o
MAGNETON            0x34              Object - MDD File System-SD Card\game.o
RED_LAPRAS          0x94              Object - MDD File System-SD Card\global.o
QUICKATTACK         0x38              Object - MDD File System-SD Card\game.o
SLOWPOKE            0x34              Object - MDD File System-SD Card\game.o
RED_VENUSAUR        0x94              Object - MDD File System-SD Card\global.o
RATTATA             0x34              Object - MDD File System-SD Card\game.o
ICEBEAM             0x38              Object - MDD File System-SD Card\game.o
STRUGGLE            0x38              Object - MDD File System-SD Card\game.o
NIDOQUEEN           0x34              Object - MDD File System-SD Card\game.o
BLUE_RHYDON         0x94              Object - MDD File System-SD Card\global.o
EEVEE               0x34              Object - MDD File System-SD Card\game.o
WARTORTLE           0x34              Object - MDD File System-SD Card\game.o
MEOWTH              0x34              Object - MDD File System-SD Card\game.o
echart              0x510             Object - MDD File System-SD Card\battle-p.o
POISONPOWDER        0x38              Object - MDD File System-SD Card\game.o
CLEFABLE            0x34              Object - MDD File System-SD Card\game.o
DROWZEE             0x34              Object - MDD File System-SD Card\game.o
PIDGEOTTO           0x34              Object - MDD File System-SD Card\game.o
TempClusterCalc     0x4               Object - MDD File System-SD Card\FSIO.o
AERODACTYL          0x34              Object - MDD File System-SD Card\game.o
ALAKAZAM            0x34              Object - MDD File System-SD Card\game.o
TENTACOOL           0x34              Object - MDD File System-SD Card\game.o
GYARADOS            0x34              Object - MDD File System-SD Card\game.o
pkmn_menu           0x88              Object - MDD File System-SD Card\battle-p.o
dirCleared          0x1               Object - MDD File System-SD Card\FSIO.o
DEFENSECURL         0x38              Object - MDD File System-SD Card\game.o
GUILLOTINE          0x38              Object - MDD File System-SD Card\game.o
PONYTA              0x34              Object - MDD File System-SD Card\game.o
CUBONE              0x34              Object - MDD File System-SD Card\game.o
gFileTemp           0x44              Object - MDD File System-SD Card\FSIO.o
HITMONLEE           0x34              Object - MDD File System-SD Card\game.o
LICKITUNG           0x34              Object - MDD File System-SD Card\game.o
GOLDEEN             0x34              Object - MDD File System-SD Card\game.o
ONIX                0x34              Object - MDD File System-SD Card\game.o
ARTICUNO            0x34              Object - MDD File System-SD Card\game.o
KINESIS             0x38              Object - MDD File System-SD Card\game.o
DOUBLEEDGE          0x38              Object - MDD File System-SD Card\game.o
HYPERFANG           0x38              Object - MDD File System-SD Card\game.o
IVYSAUR             0x34              Object - MDD File System-SD Card\game.o
FARFETCHD           0x34              Object - MDD File System-SD Card\game.o
BLUE_PIDGEOT        0x94              Object - MDD File System-SD Card\global.o
defaultArray        0xa               Object - MDD File System-SD Card\FSIO.o
ZAPDOS              0x34              Object - MDD File System-SD Card\game.o
text_count          0x1               Object - MDD File System-SD Card\battle-p.o
STRINGSHOT          0x38              Object - MDD File System-SD Card\game.o
BUBBLEBEAM          0x38              Object - MDD File System-SD Card\game.o
lfnData             0x606             Object - MDD File System-SD Card\FSIO.o
GLOOM               0x34              Object - MDD File System-SD Card\game.o
HARDEN              0x38              Object - MDD File System-SD Card\game.o
RED_PIKACHU         0x94              Object - MDD File System-SD Card\global.o
STUNSPORE           0x38              Object - MDD File System-SD Card\game.o
NIDORINA            0x34              Object - MDD File System-SD Card\game.o
SPORE               0x38              Object - MDD File System-SD Card\game.o
RED_BLASTOISE       0x94              Object - MDD File System-SD Card\global.o
FLAREON             0x34              Object - MDD File System-SD Card\game.o
BEEDRILL            0x34              Object - MDD File System-SD Card\game.o
GROWTH              0x38              Object - MDD File System-SD Card\game.o
MEWTWO              0x34              Object - MDD File System-SD Card\game.o
WATERFALL           0x38              Object - MDD File System-SD Card\game.o
gSDMode             0x1               Object - MDD File System-SD Card\SD-SPI.o
DODUO               0x34              Object - MDD File System-SD Card\game.o
LEER                0x38              Object - MDD File System-SD Card\game.o
DRAGONITE           0x34              Object - MDD File System-SD Card\game.o
FLAMETHROWER        0x38              Object - MDD File System-SD Card\game.o
VENUSAUR            0x34              Object - MDD File System-SD Card\game.o
GOLDUCK             0x34              Object - MDD File System-SD Card\game.o
SING                0x38              Object - MDD File System-SD Card\game.o
receiveBuffer       0x32              Object - MDD File System-SD Card\Demonstration1.o
TAKEDOWN            0x38              Object - MDD File System-SD Card\game.o
POLIWRATH           0x34              Object - MDD File System-SD Card\game.o
WIGGLYTUFF          0x34              Object - MDD File System-SD Card\game.o
turn_menu           0x88              Object - MDD File System-SD Card\battle-p.o
TAUROS              0x34              Object - MDD File System-SD Card\game.o
RED                 0x34              Object - MDD File System-SD Card\battle-p.o
ZUBAT               0x34              Object - MDD File System-SD Card\game.o
CHANSEY             0x34              Object - MDD File System-SD Card\game.o
THUNDERPUNCH        0x38              Object - MDD File System-SD Card\game.o
SEAKING             0x34              Object - MDD File System-SD Card\game.o
RED_SNORLAX         0x94              Object - MDD File System-SD Card\global.o
BULBASAUR           0x34              Object - MDD File System-SD Card\game.o
BLUE_EXEGGUTOR      0x94              Object - MDD File System-SD Card\global.o
VENOMOTH            0x34              Object - MDD File System-SD Card\game.o
CATERPIE            0x34              Object - MDD File System-SD Card\game.o
FSerrno             0x1               Object - MDD File System-SD Card\FSIO.o
KAKUNA              0x34              Object - MDD File System-SD Card\game.o
ROCKTHROW           0x38              Object - MDD File System-SD Card\game.o
SLUDGE              0x38              Object - MDD File System-SD Card\game.o
HAZE                0x38              Object - MDD File System-SD Card\game.o
FIREPUNCH           0x38              Object - MDD File System-SD Card\game.o
GLARE               0x38              Object - MDD File System-SD Card\game.o
HYPNO               0x34              Object - MDD File System-SD Card\game.o
MOLTRES             0x34              Object - MDD File System-SD Card\game.o

Microchip PIC32 Memory-Usage Report

kseg0 Program-Memory Usage
section                    address  length [bytes]      (dec)  Description
-------                 ----------  -------------------------  -----------
.rodata                 0x9d000000          0x854        2132  Read-only const 
.text                   0x9d00085c        0x276d4      161492  App's exec code 
.rodata                 0x9d027f30          0xbc4        3012  Read-only const 
.text._vfprintf_cdnopsu 0x9d028af4          0xae4        2788   
.rodata                 0x9d0295d8          0x9c4        2500  Read-only const 
.text                   0x9d029f9c         0x2d08       11528  App's exec code 
.dinit                  0x9d02cca4          0x228         552   
.text                   0x9d02cecc          0x200         512  App's exec code 
.text.RtccOpen          0x9d02d0cc          0x1ec         492   
.text                   0x9d02d2b8          0x5f0        1520  App's exec code 
.text.fputc             0x9d02d8a8          0x140         320   
.text                   0x9d02d9e8          0x138         312  App's exec code 
.text._flsbuf           0x9d02db20          0x12c         300   
.rodata                 0x9d02dc4c          0x104         260  Read-only const 
.text._RtccWaitClockOff 0x9d02dd50           0xf8         248   
.rodata                 0x9d02de48          0x1d4         468  Read-only const 
.text.general_exception 0x9d02e01c           0xd0         208   
.rodata                 0x9d02e0ec            0x4           4  Read-only const 
.rodata                 0x9d02e0f0           0xd0         208  Read-only const 
.text._mon_putc         0x9d02e1c0           0xb4         180   
.text                   0x9d02e274           0xa8         168  App's exec code 
.text.write             0x9d02e31c           0x88         136   
.text._sprintf_cdnopsux 0x9d02e3a4           0x68         104   
.text.strncpy           0x9d02e40c           0x64         100   
.text.OpenSPI2          0x9d02e470           0x60          96   
.text.INTEnable         0x9d02e4d0           0x58          88   
.text.rand              0x9d02e528           0x50          80   
.text.INTSetVectorPrior 0x9d02e578           0x3c          60   
.text.INTSetVectorSubPr 0x9d02e5b4           0x3c          60   
.text.strcat            0x9d02e5f0           0x38          56   
.text.INTEnableSystemMu 0x9d02e628           0x34          52   
.text.INTGetVectorPrior 0x9d02e65c           0x30          48   
.text.INTGetVectorSubPr 0x9d02e68c           0x30          48   
.text.INTClearFlag      0x9d02e6bc           0x2c          44   
.text.INTSetFlag        0x9d02e6e8           0x2c          44   
.text.INTGetFlag        0x9d02e714           0x2c          44   
.text.INTGetEnable      0x9d02e740           0x2c          44   
.rodata                 0x9d02e76c           0x28          40  Read-only const 
.text.tolower           0x9d02e794           0x24          36   
.text.toupper           0x9d02e7b8           0x24          36   
.text.getcSPI2          0x9d02e7dc           0x20          32   
.text.INTRestoreInterru 0x9d02e7fc           0x1c          28   
.text.isalnum           0x9d02e818           0x18          24   
.text.isalpha           0x9d02e830           0x18          24   
.text.iscntrl           0x9d02e848           0x18          24   
.text.isdigit           0x9d02e860           0x18          24   
.text.isgraph           0x9d02e878           0x18          24   
.text.islower           0x9d02e890           0x18          24   
.text.isprint           0x9d02e8a8           0x18          24   
.text.ispunct           0x9d02e8c0           0x18          24   
.text.isspace           0x9d02e8d8           0x18          24   
.text.isupper           0x9d02e8f0           0x18          24   
.text.isxdigit          0x9d02e908           0x18          24   
.text.srand             0x9d02e920           0x18          24   
.text                   0x9d02e938           0x18          24  App's exec code 
.text.CheKseg0CacheOff  0x9d02e950           0x18          24   
.text.CheKseg0CacheOn   0x9d02e968           0x18          24   
.text._RtccSetClockWait 0x9d02e980           0x14          20   
.text                   0x9d02e994           0x10          16  App's exec code 
.rodata                 0x9d02e9a4           0x1c          28  Read-only const 
.text._general_exceptio 0x9d02e9c0            0xc          12   
.text._bootstrap_except 0x9d02e9cc            0xc          12   
.text.isascii           0x9d02e9d8            0x8           8   
.text.toascii           0x9d02e9e0            0x8           8   
.text._tolower          0x9d02e9e8            0x8           8   
.text._toupper          0x9d02e9f0            0x8           8   
.text._on_reset         0x9d02e9f8            0x8           8   
.text._on_bootstrap     0x9d02ea00            0x8           8   
.text.INTDisableInterru 0x9d02ea08            0x8           8   
.text.INTEnableInterrup 0x9d02ea10            0x8           8   
.text.ReadCoreTimer     0x9d02ea18            0x8           8   
      Total kseg0_program_mem used  :     0x2ea18      191000  36.4% of 0x80000

kseg0 Boot-Memory Usage
section                    address  length [bytes]      (dec)  Description
-------                 ----------  -------------------------  -----------
         Total kseg0_boot_mem used  :           0           0  <1% of 0x970

Exception-Memory Usage 
section                    address  length [bytes]      (dec)  Description
-------                 ----------  -------------------------  -----------
.app_excpt              0x9fc01180           0x10          16  General-Exception 
          Total exception_mem used  :        0x10          16  0.4% of 0x1000

kseg1 Boot-Memory Usage
section                    address  length [bytes]      (dec)  Description
-------                 ----------  -------------------------  -----------
.reset                  0xbfc00000          0x1f4         500  Reset handler 
.bev_excpt              0xbfc00380           0x10          16  BEV-Exception 
         Total kseg1_boot_mem used  :       0x204         516  44.2% of 0x490
        --------------------------------------------------------------------------
         Total Program Memory used  :     0x2ec2c      191532  36.0% of 0x81e00
        --------------------------------------------------------------------------


kseg1 Data-Memory Usage
section                    address  length [bytes]      (dec)  Description
-------                 ----------  -------------------------  -----------
.eh_frame               0xa0000200           0x3c          60   
.sdata                  0xa000023c           0x20          32  Small init data 
.sbss                   0xa000025c           0x61          97  Small uninit data 
.bss                    0xa00002c0         0x5e44       24132  Uninitialized data 
.data                   0xa0006118           0xa0         160  Initialized data 
.bss                    0xa00061b8           0x68         104  Uninitialized data 
.data                   0xa0006220           0x18          24  Initialized data 
.bss                    0xa0006238            0x8           8  Uninitialized data 
         Total kseg1_data_mem used  :      0x6029       24617  37.6% of 0x10000
        --------------------------------------------------------------------------
            Total Data Memory used  :      0x6029       24617  37.6% of 0x10000
        --------------------------------------------------------------------------


Dynamic Data-Memory Reservation
section                    address  length [bytes]      (dec)  Description
-------                 ----------  -------------------------  -----------
heap                    0xa0006248              0           0  Reserved for heap 
stack                   0xa0006260         0x9d98       40344  Reserved for stack 

        --------------------------------------------------------------------------

Discarded input sections

 .reginfo       0x00000000       0x18 c:/program files (x86)/microchip/mplabc32/v2.01/bin/../lib/gcc/pic32mx/4.5.1/../../../../pic32mx/lib/crt0.o
 .pdr           0x00000000       0xa0 c:/program files (x86)/microchip/mplabc32/v2.01/bin/../lib/gcc/pic32mx/4.5.1/../../../../pic32mx/lib/crt0.o
 .reginfo       0x00000000       0x18 Object - MDD File System-SD Card\SD-SPI.o
 .pdr           0x00000000      0x240 Object - MDD File System-SD Card\SD-SPI.o
 .reginfo       0x00000000       0x18 Object - MDD File System-SD Card\FSIO.o
 .pdr           0x00000000      0x8e0 Object - MDD File System-SD Card\FSIO.o
 .reginfo       0x00000000       0x18 Object - MDD File System-SD Card\Demonstration1.o
 .pdr           0x00000000       0x20 Object - MDD File System-SD Card\Demonstration1.o
 .reginfo       0x00000000       0x18 Object - MDD File System-SD Card\buttons.o
 .pdr           0x00000000       0x20 Object - MDD File System-SD Card\buttons.o
 .reginfo       0x00000000       0x18 Object - MDD File System-SD Card\sendspi.o
 .pdr           0x00000000       0x60 Object - MDD File System-SD Card\sendspi.o
 .reginfo       0x00000000       0x18 Object - MDD File System-SD Card\bitbang.o
 .pdr           0x00000000      0x100 Object - MDD File System-SD Card\bitbang.o
 .reginfo       0x00000000       0x18 Object - MDD File System-SD Card\battle-p.o
 .pdr           0x00000000      0x3e0 Object - MDD File System-SD Card\battle-p.o
 .reginfo       0x00000000       0x18 Object - MDD File System-SD Card\eor-p.o
 .pdr           0x00000000       0xa0 Object - MDD File System-SD Card\eor-p.o
 .reginfo       0x00000000       0x18 Object - MDD File System-SD Card\game.o
 .pdr           0x00000000       0x60 Object - MDD File System-SD Card\game.o
 .reginfo       0x00000000       0x18 Object - MDD File System-SD Card\global.o
 .pdr           0x00000000      0x440 Object - MDD File System-SD Card\global.o
 .reginfo       0x00000000       0x18 Object - MDD File System-SD Card\input-p.o
 .pdr           0x00000000       0x80 Object - MDD File System-SD Card\input-p.o
 .reginfo       0x00000000       0x18 Object - MDD File System-SD Card\win-p.o
 .pdr           0x00000000       0x60 Object - MDD File System-SD Card\win-p.o
 .reginfo       0x00000000       0x18 c:/program files (x86)/microchip/mplabc32/v2.01/bin/../lib/gcc/pic32mx/4.5.1/../../../../pic32mx/lib\libc.a(memcpy.o)
 .pdr           0x00000000       0x20 c:/program files (x86)/microchip/mplabc32/v2.01/bin/../lib/gcc/pic32mx/4.5.1/../../../../pic32mx/lib\libc.a(memcpy.o)
 .reginfo       0x00000000       0x18 c:/program files (x86)/microchip/mplabc32/v2.01/bin/../lib/gcc/pic32mx/4.5.1/../../../../pic32mx/lib\libc.a(memset.o)
 .pdr           0x00000000       0x20 c:/program files (x86)/microchip/mplabc32/v2.01/bin/../lib/gcc/pic32mx/4.5.1/../../../../pic32mx/lib\libc.a(memset.o)
 .reginfo       0x00000000       0x18 c:/program files (x86)/microchip/mplabc32/v2.01/bin/../lib/gcc/pic32mx/4.5.1/../../../../pic32mx/lib\libc.a(strcpy.o)
 .pdr           0x00000000       0x20 c:/program files (x86)/microchip/mplabc32/v2.01/bin/../lib/gcc/pic32mx/4.5.1/../../../../pic32mx/lib\libc.a(strcpy.o)
 .reginfo       0x00000000       0x18 c:/program files (x86)/microchip/mplabc32/v2.01/bin/../lib/gcc/pic32mx/4.5.1/../../../../pic32mx/lib\libc.a(strlen.o)
 .pdr           0x00000000       0x20 c:/program files (x86)/microchip/mplabc32/v2.01/bin/../lib/gcc/pic32mx/4.5.1/../../../../pic32mx/lib\libc.a(strlen.o)
 .reginfo       0x00000000       0x18 c:/program files (x86)/microchip/mplabc32/v2.01/bin/../lib/gcc/pic32mx/4.5.1/../../../../pic32mx/lib\libc.a(general-exception.o)
 .pdr           0x00000000       0x20 c:/program files (x86)/microchip/mplabc32/v2.01/bin/../lib/gcc/pic32mx/4.5.1/../../../../pic32mx/lib\libc.a(general-exception.o)
 .reginfo       0x00000000       0x18 c:/program files (x86)/microchip/mplabc32/v2.01/bin/../lib/gcc/pic32mx/4.5.1/../../../../pic32mx/lib\libc.a(ctypef.o)
 .pdr           0x00000000      0x220 c:/program files (x86)/microchip/mplabc32/v2.01/bin/../lib/gcc/pic32mx/4.5.1/../../../../pic32mx/lib\libc.a(ctypef.o)
 .reginfo       0x00000000       0x18 c:/program files (x86)/microchip/mplabc32/v2.01/bin/../lib/gcc/pic32mx/4.5.1/../../../../pic32mx/lib\libc.a(rand.o)
 .pdr           0x00000000       0x40 c:/program files (x86)/microchip/mplabc32/v2.01/bin/../lib/gcc/pic32mx/4.5.1/../../../../pic32mx/lib\libc.a(rand.o)
 .reginfo       0x00000000       0x18 c:/program files (x86)/microchip/mplabc32/v2.01/bin/../lib/gcc/pic32mx/4.5.1/../../../../pic32mx/lib\libc.a(strcat.o)
 .pdr           0x00000000       0x20 c:/program files (x86)/microchip/mplabc32/v2.01/bin/../lib/gcc/pic32mx/4.5.1/../../../../pic32mx/lib\libc.a(strcat.o)
 .reginfo       0x00000000       0x18 c:/program files (x86)/microchip/mplabc32/v2.01/bin/../lib/gcc/pic32mx/4.5.1/../../../../pic32mx/lib\libc.a(strncpy.o)
 .pdr           0x00000000       0x20 c:/program files (x86)/microchip/mplabc32/v2.01/bin/../lib/gcc/pic32mx/4.5.1/../../../../pic32mx/lib\libc.a(strncpy.o)
 .reginfo       0x00000000       0x18 c:/program files (x86)/microchip/mplabc32/v2.01/bin/../lib/gcc/pic32mx/4.5.1/../../../../pic32mx/lib\libc.a(sprintf_cdnopsuxX.eo)
 .pdr           0x00000000       0x20 c:/program files (x86)/microchip/mplabc32/v2.01/bin/../lib/gcc/pic32mx/4.5.1/../../../../pic32mx/lib\libc.a(sprintf_cdnopsuxX.eo)
 .reginfo       0x00000000       0x18 c:/program files (x86)/microchip/mplabc32/v2.01/bin/../lib/gcc/pic32mx/4.5.1/../../../../pic32mx/lib\libc.a(default-general-exception-handler.o)
 .pdr           0x00000000       0x20 c:/program files (x86)/microchip/mplabc32/v2.01/bin/../lib/gcc/pic32mx/4.5.1/../../../../pic32mx/lib\libc.a(default-general-exception-handler.o)
 .reginfo       0x00000000       0x18 c:/program files (x86)/microchip/mplabc32/v2.01/bin/../lib/gcc/pic32mx/4.5.1/../../../../pic32mx/lib\libc.a(default-bootstrap-exception-handler.o)
 .pdr           0x00000000       0x20 c:/program files (x86)/microchip/mplabc32/v2.01/bin/../lib/gcc/pic32mx/4.5.1/../../../../pic32mx/lib\libc.a(default-bootstrap-exception-handler.o)
 .reginfo       0x00000000       0x18 c:/program files (x86)/microchip/mplabc32/v2.01/bin/../lib/gcc/pic32mx/4.5.1/../../../../pic32mx/lib\libc.a(default-on-reset.o)
 .pdr           0x00000000       0x20 c:/program files (x86)/microchip/mplabc32/v2.01/bin/../lib/gcc/pic32mx/4.5.1/../../../../pic32mx/lib\libc.a(default-on-reset.o)
 .reginfo       0x00000000       0x18 c:/program files (x86)/microchip/mplabc32/v2.01/bin/../lib/gcc/pic32mx/4.5.1/../../../../pic32mx/lib\libc.a(default-on-bootstrap.o)
 .pdr           0x00000000       0x20 c:/program files (x86)/microchip/mplabc32/v2.01/bin/../lib/gcc/pic32mx/4.5.1/../../../../pic32mx/lib\libc.a(default-on-bootstrap.o)
 .reginfo       0x00000000       0x18 c:/program files (x86)/microchip/mplabc32/v2.01/bin/../lib/gcc/pic32mx/4.5.1/../../../../pic32mx/lib\libc.a(default-nmi-handler.o)
 .pdr           0x00000000       0x20 c:/program files (x86)/microchip/mplabc32/v2.01/bin/../lib/gcc/pic32mx/4.5.1/../../../../pic32mx/lib\libc.a(default-nmi-handler.o)
 .reginfo       0x00000000       0x18 c:/program files (x86)/microchip/mplabc32/v2.01/bin/../lib/gcc/pic32mx/4.5.1/../../../../pic32mx/lib\libc.a(ctype.o)
 .pdr           0x00000000        0x0 c:/program files (x86)/microchip/mplabc32/v2.01/bin/../lib/gcc/pic32mx/4.5.1/../../../../pic32mx/lib\libc.a(ctype.o)
 .reginfo       0x00000000       0x18 c:/program files (x86)/microchip/mplabc32/v2.01/bin/../lib/gcc/pic32mx/4.5.1/../../../../pic32mx/lib\libc.a(doprnt_cdnopsuxX.eo)
 .pdr           0x00000000       0x20 c:/program files (x86)/microchip/mplabc32/v2.01/bin/../lib/gcc/pic32mx/4.5.1/../../../../pic32mx/lib\libc.a(doprnt_cdnopsuxX.eo)
 .reginfo       0x00000000       0x18 c:/program files (x86)/microchip/mplabc32/v2.01/bin/../lib/gcc/pic32mx/4.5.1/../../../../pic32mx/lib\libc.a(_fputc_simple.o)
 .pdr           0x00000000       0x20 c:/program files (x86)/microchip/mplabc32/v2.01/bin/../lib/gcc/pic32mx/4.5.1/../../../../pic32mx/lib\libc.a(_fputc_simple.o)
 .reginfo       0x00000000       0x18 c:/program files (x86)/microchip/mplabc32/v2.01/bin/../lib/gcc/pic32mx/4.5.1/../../../../pic32mx/lib\libc.a(write.o)
 .pdr           0x00000000       0x20 c:/program files (x86)/microchip/mplabc32/v2.01/bin/../lib/gcc/pic32mx/4.5.1/../../../../pic32mx/lib\libc.a(write.o)
 .reginfo       0x00000000       0x18 c:/program files (x86)/microchip/mplabc32/v2.01/bin/../lib/gcc/pic32mx/4.5.1/../../../../pic32mx/lib\libc.a(_iob.o)
 .pdr           0x00000000        0x0 c:/program files (x86)/microchip/mplabc32/v2.01/bin/../lib/gcc/pic32mx/4.5.1/../../../../pic32mx/lib\libc.a(_iob.o)
 .reginfo       0x00000000       0x18 c:/program files (x86)/microchip/mplabc32/v2.01/bin/../lib/gcc/pic32mx/4.5.1/../../../../pic32mx/lib\libc.a(_flsbuf_simple.o)
 .pdr           0x00000000       0x20 c:/program files (x86)/microchip/mplabc32/v2.01/bin/../lib/gcc/pic32mx/4.5.1/../../../../pic32mx/lib\libc.a(_flsbuf_simple.o)
 .reginfo       0x00000000       0x18 c:/program files (x86)/microchip/mplabc32/v2.01/bin/../lib/gcc/pic32mx/4.5.1/../../../../pic32mx/lib\libc.a(_mon_putc.o)
 .pdr           0x00000000       0x20 c:/program files (x86)/microchip/mplabc32/v2.01/bin/../lib/gcc/pic32mx/4.5.1/../../../../pic32mx/lib\libc.a(_mon_putc.o)
 .reginfo       0x00000000       0x18 c:/program files (x86)/microchip/mplabc32/v2.01/bin/../lib/gcc/pic32mx/4.5.1/../../../../pic32mx/lib\libc.a(c32_uart.o)
 .pdr           0x00000000        0x0 c:/program files (x86)/microchip/mplabc32/v2.01/bin/../lib/gcc/pic32mx/4.5.1/../../../../pic32mx/lib\libc.a(c32_uart.o)
 .reginfo       0x00000000       0x18 c:/program files (x86)/microchip/mplabc32/v2.01/bin/../lib/gcc/pic32mx/4.5.1/../../../../pic32mx/lib\libm.a(fp32.o)
 .pdr           0x00000000        0x0 c:/program files (x86)/microchip/mplabc32/v2.01/bin/../lib/gcc/pic32mx/4.5.1/../../../../pic32mx/lib\libm.a(fp32.o)
 .reginfo       0x00000000       0x18 c:/program files (x86)/microchip/mplabc32/v2.01/bin/../lib/gcc/pic32mx/4.5.1/../../../../pic32mx/lib\libmchp_peripheral_32MX675F512H.a(pcache.o)
 .pdr           0x00000000       0x40 c:/program files (x86)/microchip/mplabc32/v2.01/bin/../lib/gcc/pic32mx/4.5.1/../../../../pic32mx/lib\libmchp_peripheral_32MX675F512H.a(pcache.o)
 .reginfo       0x00000000       0x18 c:/program files (x86)/microchip/mplabc32/v2.01/bin/../lib/gcc/pic32mx/4.5.1/../../../../pic32mx/lib\libmchp_peripheral_32MX675F512H.a(int_disable_interrupts_lib.o)
 .pdr           0x00000000       0x20 c:/program files (x86)/microchip/mplabc32/v2.01/bin/../lib/gcc/pic32mx/4.5.1/../../../../pic32mx/lib\libmchp_peripheral_32MX675F512H.a(int_disable_interrupts_lib.o)
 .reginfo       0x00000000       0x18 c:/program files (x86)/microchip/mplabc32/v2.01/bin/../lib/gcc/pic32mx/4.5.1/../../../../pic32mx/lib\libmchp_peripheral_32MX675F512H.a(int_restore_interrupts_lib.o)
 .pdr           0x00000000       0x20 c:/program files (x86)/microchip/mplabc32/v2.01/bin/../lib/gcc/pic32mx/4.5.1/../../../../pic32mx/lib\libmchp_peripheral_32MX675F512H.a(int_restore_interrupts_lib.o)
 .reginfo       0x00000000       0x18 c:/program files (x86)/microchip/mplabc32/v2.01/bin/../lib/gcc/pic32mx/4.5.1/../../../../pic32mx/lib\libmchp_peripheral_32MX675F512H.a(int_enable_mv_int_lib.o)
 .pdr           0x00000000       0x20 c:/program files (x86)/microchip/mplabc32/v2.01/bin/../lib/gcc/pic32mx/4.5.1/../../../../pic32mx/lib\libmchp_peripheral_32MX675F512H.a(int_enable_mv_int_lib.o)
 .reginfo       0x00000000       0x18 c:/program files (x86)/microchip/mplabc32/v2.01/bin/../lib/gcc/pic32mx/4.5.1/../../../../pic32mx/lib\libmchp_peripheral_32MX675F512H.a(rtcc_open_lib.o)
 .pdr           0x00000000       0x20 c:/program files (x86)/microchip/mplabc32/v2.01/bin/../lib/gcc/pic32mx/4.5.1/../../../../pic32mx/lib\libmchp_peripheral_32MX675F512H.a(rtcc_open_lib.o)
 .reginfo       0x00000000       0x18 c:/program files (x86)/microchip/mplabc32/v2.01/bin/../lib/gcc/pic32mx/4.5.1/../../../../pic32mx/lib\libmchp_peripheral_32MX675F512H.a(spi_getc_spi2_lib_legacy.o)
 .pdr           0x00000000       0x20 c:/program files (x86)/microchip/mplabc32/v2.01/bin/../lib/gcc/pic32mx/4.5.1/../../../../pic32mx/lib\libmchp_peripheral_32MX675F512H.a(spi_getc_spi2_lib_legacy.o)
 .reginfo       0x00000000       0x18 c:/program files (x86)/microchip/mplabc32/v2.01/bin/../lib/gcc/pic32mx/4.5.1/../../../../pic32mx/lib\libmchp_peripheral_32MX675F512H.a(spi_open_spi2_lib_legacy.o)
 .pdr           0x00000000       0x20 c:/program files (x86)/microchip/mplabc32/v2.01/bin/../lib/gcc/pic32mx/4.5.1/../../../../pic32mx/lib\libmchp_peripheral_32MX675F512H.a(spi_open_spi2_lib_legacy.o)
 .reginfo       0x00000000       0x18 c:/program files (x86)/microchip/mplabc32/v2.01/bin/../lib/gcc/pic32mx/4.5.1/../../../../pic32mx/lib\libmchp_peripheral_32MX675F512H.a(spi_brg_tbl_lib_legacy.o)
 .pdr           0x00000000        0x0 c:/program files (x86)/microchip/mplabc32/v2.01/bin/../lib/gcc/pic32mx/4.5.1/../../../../pic32mx/lib\libmchp_peripheral_32MX675F512H.a(spi_brg_tbl_lib_legacy.o)
 .reginfo       0x00000000       0x18 c:/program files (x86)/microchip/mplabc32/v2.01/bin/../lib/gcc/pic32mx/4.5.1/../../../../pic32mx/lib\libmchp_peripheral_32MX675F512H.a(int_enable_interrupts_lib.o)
 .pdr           0x00000000       0x20 c:/program files (x86)/microchip/mplabc32/v2.01/bin/../lib/gcc/pic32mx/4.5.1/../../../../pic32mx/lib\libmchp_peripheral_32MX675F512H.a(int_enable_interrupts_lib.o)
 .reginfo       0x00000000       0x18 c:/program files (x86)/microchip/mplabc32/v2.01/bin/../lib/gcc/pic32mx/4.5.1/../../../../pic32mx/lib\libmchp_peripheral_32MX675F512H.a(int_tbl_lib.o)
 .pdr           0x00000000      0x120 c:/program files (x86)/microchip/mplabc32/v2.01/bin/../lib/gcc/pic32mx/4.5.1/../../../../pic32mx/lib\libmchp_peripheral_32MX675F512H.a(int_tbl_lib.o)
 .reginfo       0x00000000       0x18 c:/program files (x86)/microchip/mplabc32/v2.01/bin/../lib/gcc/pic32mx/4.5.1/../../../../pic32mx/lib\libmchp_peripheral_32MX675F512H.a(_rtcc_wait_clock_off_lib.o)
 .pdr           0x00000000       0x40 c:/program files (x86)/microchip/mplabc32/v2.01/bin/../lib/gcc/pic32mx/4.5.1/../../../../pic32mx/lib\libmchp_peripheral_32MX675F512H.a(_rtcc_wait_clock_off_lib.o)
 .reginfo       0x00000000       0x18 c:/program files (x86)/microchip/mplabc32/v2.01/bin/../lib/gcc/pic32mx/4.5.1/../../../../pic32mx/lib\libmchp_peripheral_32MX675F512H.a(read_core_timer_lib.o)
 .pdr           0x00000000       0x20 c:/program files (x86)/microchip/mplabc32/v2.01/bin/../lib/gcc/pic32mx/4.5.1/../../../../pic32mx/lib\libmchp_peripheral_32MX675F512H.a(read_core_timer_lib.o)
 .reginfo       0x00000000       0x18 c:/program files (x86)/microchip/mplabc32/v2.01/bin/../lib/gcc/pic32mx/4.5.1\libgcc.a(_udivdi3.o)
 .pdr           0x00000000       0x20 c:/program files (x86)/microchip/mplabc32/v2.01/bin/../lib/gcc/pic32mx/4.5.1\libgcc.a(_udivdi3.o)
 .reginfo       0x00000000       0x18 c:/program files (x86)/microchip/mplabc32/v2.01/bin/../lib/gcc/pic32mx/4.5.1\libgcc.a(_umoddi3.o)
 .pdr           0x00000000       0x20 c:/program files (x86)/microchip/mplabc32/v2.01/bin/../lib/gcc/pic32mx/4.5.1\libgcc.a(_umoddi3.o)
 .reginfo       0x00000000       0x18 c:/program files (x86)/microchip/mplabc32/v2.01/bin/../lib/gcc/pic32mx/4.5.1/../../../../pic32mx/lib/./proc/32MX675F512H\processor.o
 .pdr           0x00000000        0x0 c:/program files (x86)/microchip/mplabc32/v2.01/bin/../lib/gcc/pic32mx/4.5.1/../../../../pic32mx/lib/./proc/32MX675F512H\processor.o

Memory Configuration

Name             Origin             Length             Attributes
kseg0_program_mem 0x9d000000         0x00080000         xr
kseg0_boot_mem   0x9fc00490         0x00000970
exception_mem    0x9fc01000         0x00001000
kseg1_boot_mem   0xbfc00000         0x00000490
debug_exec_mem   0xbfc02000         0x00000ff0
config3          0xbfc02ff0         0x00000004
config2          0xbfc02ff4         0x00000004
config1          0xbfc02ff8         0x00000004
config0          0xbfc02ffc         0x00000004
kseg1_data_mem   0xa0000000         0x00010000         w !x
sfrs             0xbf800000         0x00100000
configsfrs       0xbfc02ff0         0x00000010
*default*        0x00000000         0xffffffff

Linker script and memory map

LOAD c:/program files (x86)/microchip/mplabc32/v2.01/bin/../lib/gcc/pic32mx/4.5.1/../../../../pic32mx/lib/crt0.o
                0x00000001                _DEBUGGER = 0x1
LOAD Object - MDD File System-SD Card\SD-SPI.o
LOAD Object - MDD File System-SD Card\FSIO.o
LOAD Object - MDD File System-SD Card\Demonstration1.o
LOAD Object - MDD File System-SD Card\buttons.o
LOAD Object - MDD File System-SD Card\sendspi.o
LOAD Object - MDD File System-SD Card\bitbang.o
LOAD Object - MDD File System-SD Card\battle-p.o
LOAD Object - MDD File System-SD Card\eor-p.o
LOAD Object - MDD File System-SD Card\game.o
LOAD Object - MDD File System-SD Card\global.o
LOAD Object - MDD File System-SD Card\input-p.o
LOAD Object - MDD File System-SD Card\win-p.o
                0x00000001                __MPLAB_BUILD = 0x1
                0x00000001                __MPLAB_DEBUG = 0x1
                0x00000001                __MPLAB_DEBUGGER_ICD3 = 0x1
                0x00000001                __ICD2RAM = 0x1
LOAD c:/program files (x86)/microchip/mplabc32/v2.01/bin/../lib/gcc/pic32mx/4.5.1\libgcc.a
START GROUP
LOAD c:/program files (x86)/microchip/mplabc32/v2.01/bin/../lib/gcc/pic32mx/4.5.1/../../../../pic32mx/lib\libdebug.a
LOAD c:/program files (x86)/microchip/mplabc32/v2.01/bin/../lib/gcc/pic32mx/4.5.1/../../../../pic32mx/lib\libc.a
LOAD c:/program files (x86)/microchip/mplabc32/v2.01/bin/../lib/gcc/pic32mx/4.5.1/../../../../pic32mx/lib\libm.a
LOAD c:/program files (x86)/microchip/mplabc32/v2.01/bin/../lib/gcc/pic32mx/4.5.1/../../../../pic32mx/lib\libe.a
LOAD c:/program files (x86)/microchip/mplabc32/v2.01/bin/../lib/gcc/pic32mx/4.5.1/../../../../pic32mx/lib\libdsp.a
LOAD c:/program files (x86)/microchip/mplabc32/v2.01/bin/../lib/gcc/pic32mx/4.5.1/../../../../pic32mx/lib\libmchp_peripheral.a
LOAD c:/program files (x86)/microchip/mplabc32/v2.01/bin/../lib/gcc/pic32mx/4.5.1/../../../../pic32mx/lib\libmchp_peripheral_32MX675F512H.a
END GROUP
LOAD c:/program files (x86)/microchip/mplabc32/v2.01/bin/../lib/gcc/pic32mx/4.5.1\libgcc.a
                0x00000400                PROVIDE (_min_stack_size, 0x400)
                0x00000000                PROVIDE (_min_heap_size, 0x0)
LOAD c:/program files (x86)/microchip/mplabc32/v2.01/bin/../lib/gcc/pic32mx/4.5.1/../../../../pic32mx/lib/./proc/32MX675F512H\processor.o
                0x00000001                PROVIDE (_vector_spacing, 0x1)
                0x9fc01000                _ebase_address = 0x9fc01000
                0xbfc00000                _RESET_ADDR = 0xbfc00000
                0xbfc00380                _BEV_EXCPT_ADDR = 0xbfc00380
                0xbfc00480                _DBG_EXCPT_ADDR = 0xbfc00480
                0xbfc02000                _DBG_CODE_ADDR = 0xbfc02000
                0x00000ff0                _DBG_CODE_SIZE = 0xff0
                0x9fc01180                _GEN_EXCPT_ADDR = (_ebase_address + 0x180)

.config_BFC02FF0
 *(.config_BFC02FF0)

.config_BFC02FF4
 *(.config_BFC02FF4)

.config_BFC02FF8
 *(.config_BFC02FF8)

.config_BFC02FFC
 *(.config_BFC02FFC)
                0xbfc02000                PROVIDE (_DBG_CODE_ADDR, 0xbfc02000)
                0x00000ff0                PROVIDE (_DBG_CODE_SIZE, 0xff0)

.reset          0xbfc00000      0x1f4
 *(.reset)
 .reset         0xbfc00000       0x10 c:/program files (x86)/microchip/mplabc32/v2.01/bin/../lib/gcc/pic32mx/4.5.1/../../../../pic32mx/lib/crt0.o
                0xbfc00000                _reset
 *(.reset.startup)
 .reset.startup
                0xbfc00010      0x1e4 c:/program files (x86)/microchip/mplabc32/v2.01/bin/../lib/gcc/pic32mx/4.5.1/../../../../pic32mx/lib/crt0.o

.bev_excpt      0xbfc00380       0x10
 *(.bev_handler)
 .bev_handler   0xbfc00380       0x10 c:/program files (x86)/microchip/mplabc32/v2.01/bin/../lib/gcc/pic32mx/4.5.1/../../../../pic32mx/lib/crt0.o

.dbg_excpt      0xbfc00480        0x8
                0xbfc00480                . = (. + DEFINED (_DEBUGGER)?0x8:0x0)
 *fill*         0xbfc00480        0x8 00

.dbg_code       0xbfc02000      0xff0
                0xbfc02000                . = (. + DEFINED (_DEBUGGER)?_DBG_CODE_SIZE:0x0)
 *fill*         0xbfc02000      0xff0 00

.app_excpt      0x9fc01180       0x10
 *(.gen_handler)
 .gen_handler   0x9fc01180       0x10 c:/program files (x86)/microchip/mplabc32/v2.01/bin/../lib/gcc/pic32mx/4.5.1/../../../../pic32mx/lib/crt0.o

.vector_0       0x9fc01200        0x0
 *(.vector_0)
                0x00000001                ASSERT (((_vector_spacing == 0x0) || (SIZEOF (.vector_0) <= (_vector_spacing << 0x5))), function at exception vector 0 too large)

.vector_1       0x9fc01220        0x0
 *(.vector_1)
                0x00000001                ASSERT (((_vector_spacing == 0x0) || (SIZEOF (.vector_1) <= (_vector_spacing << 0x5))), function at exception vector 1 too large)

.vector_2       0x9fc01240        0x0
 *(.vector_2)
                0x00000001                ASSERT (((_vector_spacing == 0x0) || (SIZEOF (.vector_2) <= (_vector_spacing << 0x5))), function at exception vector 2 too large)

.vector_3       0x9fc01260        0x0
 *(.vector_3)
                0x00000001                ASSERT (((_vector_spacing == 0x0) || (SIZEOF (.vector_3) <= (_vector_spacing << 0x5))), function at exception vector 3 too large)

.vector_4       0x9fc01280        0x0
 *(.vector_4)
                0x00000001                ASSERT (((_vector_spacing == 0x0) || (SIZEOF (.vector_4) <= (_vector_spacing << 0x5))), function at exception vector 4 too large)

.vector_5       0x9fc012a0        0x0
 *(.vector_5)
                0x00000001                ASSERT (((_vector_spacing == 0x0) || (SIZEOF (.vector_5) <= (_vector_spacing << 0x5))), function at exception vector 5 too large)

.vector_6       0x9fc012c0        0x0
 *(.vector_6)
                0x00000001                ASSERT (((_vector_spacing == 0x0) || (SIZEOF (.vector_6) <= (_vector_spacing << 0x5))), function at exception vector 6 too large)

.vector_7       0x9fc012e0        0x0
 *(.vector_7)
                0x00000001                ASSERT (((_vector_spacing == 0x0) || (SIZEOF (.vector_7) <= (_vector_spacing << 0x5))), function at exception vector 7 too large)

.vector_8       0x9fc01300        0x0
 *(.vector_8)
                0x00000001                ASSERT (((_vector_spacing == 0x0) || (SIZEOF (.vector_8) <= (_vector_spacing << 0x5))), function at exception vector 8 too large)

.vector_9       0x9fc01320        0x0
 *(.vector_9)
                0x00000001                ASSERT (((_vector_spacing == 0x0) || (SIZEOF (.vector_9) <= (_vector_spacing << 0x5))), function at exception vector 9 too large)

.vector_10      0x9fc01340        0x0
 *(.vector_10)
                0x00000001                ASSERT (((_vector_spacing == 0x0) || (SIZEOF (.vector_10) <= (_vector_spacing << 0x5))), function at exception vector 10 too large)

.vector_11      0x9fc01360        0x0
 *(.vector_11)
                0x00000001                ASSERT (((_vector_spacing == 0x0) || (SIZEOF (.vector_11) <= (_vector_spacing << 0x5))), function at exception vector 11 too large)

.vector_12      0x9fc01380        0x0
 *(.vector_12)
                0x00000001                ASSERT (((_vector_spacing == 0x0) || (SIZEOF (.vector_12) <= (_vector_spacing << 0x5))), function at exception vector 12 too large)

.vector_13      0x9fc013a0        0x0
 *(.vector_13)
                0x00000001                ASSERT (((_vector_spacing == 0x0) || (SIZEOF (.vector_13) <= (_vector_spacing << 0x5))), function at exception vector 13 too large)

.vector_14      0x9fc013c0        0x0
 *(.vector_14)
                0x00000001                ASSERT (((_vector_spacing == 0x0) || (SIZEOF (.vector_14) <= (_vector_spacing << 0x5))), function at exception vector 14 too large)

.vector_15      0x9fc013e0        0x0
 *(.vector_15)
                0x00000001                ASSERT (((_vector_spacing == 0x0) || (SIZEOF (.vector_15) <= (_vector_spacing << 0x5))), function at exception vector 15 too large)

.vector_16      0x9fc01400        0x0
 *(.vector_16)
                0x00000001                ASSERT (((_vector_spacing == 0x0) || (SIZEOF (.vector_16) <= (_vector_spacing << 0x5))), function at exception vector 16 too large)

.vector_17      0x9fc01420        0x0
 *(.vector_17)
                0x00000001                ASSERT (((_vector_spacing == 0x0) || (SIZEOF (.vector_17) <= (_vector_spacing << 0x5))), function at exception vector 17 too large)

.vector_18      0x9fc01440        0x0
 *(.vector_18)
                0x00000001                ASSERT (((_vector_spacing == 0x0) || (SIZEOF (.vector_18) <= (_vector_spacing << 0x5))), function at exception vector 18 too large)

.vector_19      0x9fc01460        0x0
 *(.vector_19)
                0x00000001                ASSERT (((_vector_spacing == 0x0) || (SIZEOF (.vector_19) <= (_vector_spacing << 0x5))), function at exception vector 19 too large)

.vector_20      0x9fc01480        0x0
 *(.vector_20)
                0x00000001                ASSERT (((_vector_spacing == 0x0) || (SIZEOF (.vector_20) <= (_vector_spacing << 0x5))), function at exception vector 20 too large)

.vector_21      0x9fc014a0        0x0
 *(.vector_21)
                0x00000001                ASSERT (((_vector_spacing == 0x0) || (SIZEOF (.vector_21) <= (_vector_spacing << 0x5))), function at exception vector 21 too large)

.vector_22      0x9fc014c0        0x0
 *(.vector_22)
                0x00000001                ASSERT (((_vector_spacing == 0x0) || (SIZEOF (.vector_22) <= (_vector_spacing << 0x5))), function at exception vector 22 too large)

.vector_23      0x9fc014e0        0x0
 *(.vector_23)
                0x00000001                ASSERT (((_vector_spacing == 0x0) || (SIZEOF (.vector_23) <= (_vector_spacing << 0x5))), function at exception vector 23 too large)

.vector_24      0x9fc01500        0x0
 *(.vector_24)
                0x00000001                ASSERT (((_vector_spacing == 0x0) || (SIZEOF (.vector_24) <= (_vector_spacing << 0x5))), function at exception vector 24 too large)

.vector_25      0x9fc01520        0x0
 *(.vector_25)
                0x00000001                ASSERT (((_vector_spacing == 0x0) || (SIZEOF (.vector_25) <= (_vector_spacing << 0x5))), function at exception vector 25 too large)

.vector_26      0x9fc01540        0x0
 *(.vector_26)
                0x00000001                ASSERT (((_vector_spacing == 0x0) || (SIZEOF (.vector_26) <= (_vector_spacing << 0x5))), function at exception vector 26 too large)

.vector_27      0x9fc01560        0x0
 *(.vector_27)
                0x00000001                ASSERT (((_vector_spacing == 0x0) || (SIZEOF (.vector_27) <= (_vector_spacing << 0x5))), function at exception vector 27 too large)

.vector_28      0x9fc01580        0x0
 *(.vector_28)
                0x00000001                ASSERT (((_vector_spacing == 0x0) || (SIZEOF (.vector_28) <= (_vector_spacing << 0x5))), function at exception vector 28 too large)

.vector_29      0x9fc015a0        0x0
 *(.vector_29)
                0x00000001                ASSERT (((_vector_spacing == 0x0) || (SIZEOF (.vector_29) <= (_vector_spacing << 0x5))), function at exception vector 29 too large)

.vector_30      0x9fc015c0        0x0
 *(.vector_30)
                0x00000001                ASSERT (((_vector_spacing == 0x0) || (SIZEOF (.vector_30) <= (_vector_spacing << 0x5))), function at exception vector 30 too large)

.vector_31      0x9fc015e0        0x0
 *(.vector_31)
                0x00000001                ASSERT (((_vector_spacing == 0x0) || (SIZEOF (.vector_31) <= (_vector_spacing << 0x5))), function at exception vector 31 too large)

.vector_32      0x9fc01600        0x0
 *(.vector_32)
                0x00000001                ASSERT (((_vector_spacing == 0x0) || (SIZEOF (.vector_32) <= (_vector_spacing << 0x5))), function at exception vector 32 too large)

.vector_33      0x9fc01620        0x0
 *(.vector_33)
                0x00000001                ASSERT (((_vector_spacing == 0x0) || (SIZEOF (.vector_33) <= (_vector_spacing << 0x5))), function at exception vector 33 too large)

.vector_34      0x9fc01640        0x0
 *(.vector_34)
                0x00000001                ASSERT (((_vector_spacing == 0x0) || (SIZEOF (.vector_34) <= (_vector_spacing << 0x5))), function at exception vector 34 too large)

.vector_35      0x9fc01660        0x0
 *(.vector_35)
                0x00000001                ASSERT (((_vector_spacing == 0x0) || (SIZEOF (.vector_35) <= (_vector_spacing << 0x5))), function at exception vector 35 too large)

.vector_36      0x9fc01680        0x0
 *(.vector_36)
                0x00000001                ASSERT (((_vector_spacing == 0x0) || (SIZEOF (.vector_36) <= (_vector_spacing << 0x5))), function at exception vector 36 too large)

.vector_37      0x9fc016a0        0x0
 *(.vector_37)
                0x00000001                ASSERT (((_vector_spacing == 0x0) || (SIZEOF (.vector_37) <= (_vector_spacing << 0x5))), function at exception vector 37 too large)

.vector_38      0x9fc016c0        0x0
 *(.vector_38)
                0x00000001                ASSERT (((_vector_spacing == 0x0) || (SIZEOF (.vector_38) <= (_vector_spacing << 0x5))), function at exception vector 38 too large)

.vector_39      0x9fc016e0        0x0
 *(.vector_39)
                0x00000001                ASSERT (((_vector_spacing == 0x0) || (SIZEOF (.vector_39) <= (_vector_spacing << 0x5))), function at exception vector 39 too large)

.vector_40      0x9fc01700        0x0
 *(.vector_40)
                0x00000001                ASSERT (((_vector_spacing == 0x0) || (SIZEOF (.vector_40) <= (_vector_spacing << 0x5))), function at exception vector 40 too large)

.vector_41      0x9fc01720        0x0
 *(.vector_41)
                0x00000001                ASSERT (((_vector_spacing == 0x0) || (SIZEOF (.vector_41) <= (_vector_spacing << 0x5))), function at exception vector 41 too large)

.vector_42      0x9fc01740        0x0
 *(.vector_42)
                0x00000001                ASSERT (((_vector_spacing == 0x0) || (SIZEOF (.vector_42) <= (_vector_spacing << 0x5))), function at exception vector 42 too large)

.vector_43      0x9fc01760        0x0
 *(.vector_43)
                0x00000001                ASSERT (((_vector_spacing == 0x0) || (SIZEOF (.vector_43) <= (_vector_spacing << 0x5))), function at exception vector 43 too large)

.vector_44      0x9fc01780        0x0
 *(.vector_44)
                0x00000001                ASSERT (((_vector_spacing == 0x0) || (SIZEOF (.vector_44) <= (_vector_spacing << 0x5))), function at exception vector 44 too large)

.vector_45      0x9fc017a0        0x0
 *(.vector_45)
                0x00000001                ASSERT (((_vector_spacing == 0x0) || (SIZEOF (.vector_45) <= (_vector_spacing << 0x5))), function at exception vector 45 too large)

.vector_46      0x9fc017c0        0x0
 *(.vector_46)
                0x00000001                ASSERT (((_vector_spacing == 0x0) || (SIZEOF (.vector_46) <= (_vector_spacing << 0x5))), function at exception vector 46 too large)

.vector_47      0x9fc017e0        0x0
 *(.vector_47)
                0x00000001                ASSERT (((_vector_spacing == 0x0) || (SIZEOF (.vector_47) <= (_vector_spacing << 0x5))), function at exception vector 47 too large)

.vector_48      0x9fc01800        0x0
 *(.vector_48)
                0x00000001                ASSERT (((_vector_spacing == 0x0) || (SIZEOF (.vector_48) <= (_vector_spacing << 0x5))), function at exception vector 48 too large)

.vector_49      0x9fc01820        0x0
 *(.vector_49)
                0x00000001                ASSERT (((_vector_spacing == 0x0) || (SIZEOF (.vector_49) <= (_vector_spacing << 0x5))), function at exception vector 49 too large)

.vector_50      0x9fc01840        0x0
 *(.vector_50)
                0x00000001                ASSERT (((_vector_spacing == 0x0) || (SIZEOF (.vector_50) <= (_vector_spacing << 0x5))), function at exception vector 50 too large)

.vector_51      0x9fc01860        0x0
 *(.vector_51)
                0x00000001                ASSERT (((_vector_spacing == 0x0) || (SIZEOF (.vector_51) <= (_vector_spacing << 0x5))), function at exception vector 51 too large)

.vector_52      0x9fc01880        0x0
 *(.vector_52)
                0x00000001                ASSERT (((_vector_spacing == 0x0) || (SIZEOF (.vector_52) <= (_vector_spacing << 0x5))), function at exception vector 52 too large)

.vector_53      0x9fc018a0        0x0
 *(.vector_53)
                0x00000001                ASSERT (((_vector_spacing == 0x0) || (SIZEOF (.vector_53) <= (_vector_spacing << 0x5))), function at exception vector 53 too large)

.vector_54      0x9fc018c0        0x0
 *(.vector_54)
                0x00000001                ASSERT (((_vector_spacing == 0x0) || (SIZEOF (.vector_54) <= (_vector_spacing << 0x5))), function at exception vector 54 too large)

.vector_55      0x9fc018e0        0x0
 *(.vector_55)
                0x00000001                ASSERT (((_vector_spacing == 0x0) || (SIZEOF (.vector_55) <= (_vector_spacing << 0x5))), function at exception vector 55 too large)

.vector_56      0x9fc01900        0x0
 *(.vector_56)
                0x00000001                ASSERT (((_vector_spacing == 0x0) || (SIZEOF (.vector_56) <= (_vector_spacing << 0x5))), function at exception vector 56 too large)

.vector_57      0x9fc01920        0x0
 *(.vector_57)
                0x00000001                ASSERT (((_vector_spacing == 0x0) || (SIZEOF (.vector_57) <= (_vector_spacing << 0x5))), function at exception vector 57 too large)

.vector_58      0x9fc01940        0x0
 *(.vector_58)
                0x00000001                ASSERT (((_vector_spacing == 0x0) || (SIZEOF (.vector_58) <= (_vector_spacing << 0x5))), function at exception vector 58 too large)

.vector_59      0x9fc01960        0x0
 *(.vector_59)
                0x00000001                ASSERT (((_vector_spacing == 0x0) || (SIZEOF (.vector_59) <= (_vector_spacing << 0x5))), function at exception vector 59 too large)

.vector_60      0x9fc01980        0x0
 *(.vector_60)
                0x00000001                ASSERT (((_vector_spacing == 0x0) || (SIZEOF (.vector_60) <= (_vector_spacing << 0x5))), function at exception vector 60 too large)

.vector_61      0x9fc019a0        0x0
 *(.vector_61)
                0x00000001                ASSERT (((_vector_spacing == 0x0) || (SIZEOF (.vector_61) <= (_vector_spacing << 0x5))), function at exception vector 61 too large)

.vector_62      0x9fc019c0        0x0
 *(.vector_62)
                0x00000001                ASSERT (((_vector_spacing == 0x0) || (SIZEOF (.vector_62) <= (_vector_spacing << 0x5))), function at exception vector 62 too large)

.vector_63      0x9fc019e0        0x0
 *(.vector_63)
                0x00000001                ASSERT (((_vector_spacing == 0x0) || (SIZEOF (.vector_63) <= (_vector_spacing << 0x5))), function at exception vector 63 too large)

.startup
 *(.startup)

.text
 *(.stub .gnu.linkonce.t.*)
 *(.text.*personality*)
 *(.mips16.fn.*)
 *(.mips16.call.*)
 *(.gnu.warning)

.rodata         0x9d000000      0x854
 *(.rodata.* .gnu.linkonce.r.*)
 .rodata._SpiBrgConvTbl
                0x9d000000       0x80 c:/program files (x86)/microchip/mplabc32/v2.01/bin/../lib/gcc/pic32mx/4.5.1/../../../../pic32mx/lib\libmchp_peripheral_32MX675F512H.a(spi_brg_tbl_lib_legacy.o)
                0x9d000000                _SpiBrgConvTbl
 .rodata.__IntSrcTbl
                0x9d000080      0x51c c:/program files (x86)/microchip/mplabc32/v2.01/bin/../lib/gcc/pic32mx/4.5.1/../../../../pic32mx/lib\libmchp_peripheral_32MX675F512H.a(int_tbl_lib.o)
                0x9d000080                __IntSrcTbl
 .rodata.__IntVectorTbl
                0x9d00059c      0x2b8 c:/program files (x86)/microchip/mplabc32/v2.01/bin/../lib/gcc/pic32mx/4.5.1/../../../../pic32mx/lib\libmchp_peripheral_32MX675F512H.a(int_tbl_lib.o)
                0x9d00059c                __IntVectorTbl
 *(.rodata1)
                0x9d000854                . = ALIGN (0x4)

.sdata2         0x9d000854        0x0
 *(.sdata2 .sdata2.* .gnu.linkonce.s2.*)
                0x9d000854                . = ALIGN (0x4)

.sbss2          0x9d000854        0x0
 *(.sbss2 .sbss2.* .gnu.linkonce.sb2.*)
                0x9d000854                . = ALIGN (0x4)

.eh_frame_hdr
 *(.eh_frame_hdr)

.eh_frame
 *(.eh_frame)

.dbg_data       0xa0000000      0x200
                0xa0000000                . = (. + DEFINED (_DEBUGGER)?0x200:0x0)
 *fill*         0xa0000000      0x200 00

.persist        0xa0000200        0x0
                0xa0000200                _persist_begin = .
 *(.persist .persist.*)
                0xa0000200                . = ALIGN (0x4)
                0xa0000200                _persist_end = .

.eh_frame       0xa0000200       0x3c
 *(.eh_frame)
 .eh_frame      0xa0000200       0x28 c:/program files (x86)/microchip/mplabc32/v2.01/bin/../lib/gcc/pic32mx/4.5.1\libgcc.a(_udivdi3.o)
 .eh_frame      0xa0000228       0x14 c:/program files (x86)/microchip/mplabc32/v2.01/bin/../lib/gcc/pic32mx/4.5.1\libgcc.a(_umoddi3.o)
                                 0x28 (size before relaxing)
                0xa000023c                . = .
                0xa0008230                _gp = (ALIGN (0x10) + 0x7ff0)

.got
 *(.got.plt)
 *(.got)

.sdata          0xa000023c       0x20
                0xa000023c                _sdata_begin = .
 *(.sdata .sdata.* .gnu.linkonce.s.*)
 .sdata         0xa000023c        0xc Object - MDD File System-SD Card\FSIO.o
                0xa000023c                gLastFATSectorRead
                0xa0000240                gLastDataSectorRead
                0xa0000244                cwdptr
 .sdata         0xa0000248        0x4 Object - MDD File System-SD Card\Demonstration1.o
                0xa0000248                send2
 .sdata         0xa000024c        0x4 c:/program files (x86)/microchip/mplabc32/v2.01/bin/../lib/gcc/pic32mx/4.5.1/../../../../pic32mx/lib\libc.a(_iob.o)
                0xa000024c                _Files
 .sdata         0xa0000250        0x4 c:/program files (x86)/microchip/mplabc32/v2.01/bin/../lib/gcc/pic32mx/4.5.1/../../../../pic32mx/lib\libc.a(c32_uart.o)
                0xa0000250                __C32_UART
 .sdata._RtccWaitClkStepSz
                0xa0000254        0x4 c:/program files (x86)/microchip/mplabc32/v2.01/bin/../lib/gcc/pic32mx/4.5.1/../../../../pic32mx/lib\libmchp_peripheral_32MX675F512H.a(_rtcc_wait_clock_off_lib.o)
                0xa0000254                _RtccWaitClkStepSz
 .sdata._RtccWaitClkSteps
                0xa0000258        0x4 c:/program files (x86)/microchip/mplabc32/v2.01/bin/../lib/gcc/pic32mx/4.5.1/../../../../pic32mx/lib\libmchp_peripheral_32MX675F512H.a(_rtcc_wait_clock_off_lib.o)
                0xa0000258                _RtccWaitClkSteps
                0xa000025c                _sdata_end = .

.lit8
 *(.lit8)

.lit4
 *(.lit4)
                0xa000025c                . = ALIGN (0x4)
                0xa000025c                _data_end = .
                0xa000025c                _bss_begin = .

.sbss           0xa000025c       0x61
                0xa000025c                _sbss_begin = .
 *(.dynsbss)
 *(.sbss .sbss.* .gnu.linkonce.sb.*)
 .sbss          0xa000025c       0x1c Object - MDD File System-SD Card\SD-SPI.o
 .sbss          0xa0000278       0x14 Object - MDD File System-SD Card\FSIO.o
                0xa0000278                gNeedFATWrite
                0xa000027c                gBufferOwner
                0xa0000280                gNeedDataWrite
                0xa0000281                nextClusterIsLast
                0xa0000282                gBufferZeroed
                0xa0000283                recache
                0xa0000284                utfModeFileName
                0xa0000288                twoByteMode
 .sbss          0xa000028c        0x1 c:/program files (x86)/microchip/mplabc32/v2.01/bin/../lib/gcc/pic32mx/4.5.1/../../../../pic32mx/lib\libc.a(_iob.o)
                0xa000028c                _outdone
 *(.scommon)
 *fill*         0xa000028d        0x3 00
 .scommon       0xa0000290        0x7 Object - MDD File System-SD Card\SD-SPI.o
                0xa0000290                MDD_SDSPI_finalLBA
                0xa0000294                gMediaSectorSize
                0xa0000296                gSDMode
 *fill*         0xa0000297        0x1 00
 .scommon       0xa0000298       0x1e Object - MDD File System-SD Card\FSIO.o
                0xa0000298                gFileSlotOpen
                0xa000029c                asciiFilename
                0xa00002a0                recordSearchLength
                0xa00002a4                utf16Filename
                0xa00002a8                FatRootDirClusterValue
                0xa00002ac                fileNameLength
                0xa00002b0                TempClusterCalc
                0xa00002b4                dirCleared
                0xa00002b5                FSerrno
 *fill*         0xa00002b6        0x2 00
 .scommon       0xa00002b8        0x5 Object - MDD File System-SD Card\battle-p.o
                0xa00002b8                input_player
                0xa00002bc                text_count
 .scommon       0xa00002bd        0x0 Object - MDD File System-SD Card\eor-p.o
 .scommon       0xa00002bd        0x0 Object - MDD File System-SD Card\game.o
 .scommon       0xa00002bd        0x0 Object - MDD File System-SD Card\global.o
 .scommon       0xa00002bd        0x0 Object - MDD File System-SD Card\input-p.o
 .scommon       0xa00002bd        0x0 Object - MDD File System-SD Card\win-p.o
                0xa00002bd                _sbss_end = .

.bss            0xa00002c0     0x5e44
 *(.dynbss)
 *(COMMON)
 COMMON         0xa00002c0     0x13f2 Object - MDD File System-SD Card\FSIO.o
                0xa00002c0                gDataBuffer
                0xa00004c0                tempDirectoryString
                0xa00006cc                cwd
                0xa0000710                tempCWDobj
                0xa0000754                recordFoundName
                0xa0000958                gFATBuffer
                0xa0000b58                gFileArray
                0xa0000c24                recordSearchName
                0xa0000e28                gDiskData
                0xa0000e50                fileFoundString
                0xa000105c                gFileTemp
                0xa00010a0                defaultArray
                0xa00010ac                lfnData
 *fill*         0xa00016b2        0x2 00
 COMMON         0xa00016b4       0x32 Object - MDD File System-SD Card\Demonstration1.o
                0xa00016b4                receiveBuffer
 *fill*         0xa00016e6        0x2 00
 COMMON         0xa00016e8      0xc38 Object - MDD File System-SD Card\battle-p.o
                0xa00016e8                fpkmn_menu
                0xa0001770                fight_menu
                0xa00017f8                msg
                0xa00019f8                BLUE
                0xa0001a2c                text
                0xa0001c2c                battle
                0xa0001c44                run_menu
                0xa0001ccc                echart
                0xa00021dc                pkmn_menu
                0xa0002264                turn_menu
                0xa00022ec                RED
 COMMON         0xa0002320     0x36f4 Object - MDD File System-SD Card\game.o
                0xa0002320                TENTACRUEL
                0xa0002354                BONECLUB
                0xa000238c                SELFDESTRUCT
                0xa00023c4                WATERGUN
                0xa00023fc                GROWLITHE
                0xa0002430                PSYBEAM
                0xa0002468                PERSIAN
                0xa000249c                SANDATTACK
                0xa00024d4                GRIMER
                0xa0002508                WITHDRAW
                0xa0002540                NIDORINO
                0xa0002574                PORYGON
                0xa00025a8                BITE
                0xa00025e0                FLASH
                0xa0002618                GOLEM
                0xa000264c                SLASH
                0xa0002684                SQUIRTLE
                0xa00026b8                PRIMEAPE
                0xa00026ec                VICEGRIP
                0xa0002724                RAICHU
                0xa0002758                SWORDSDANCE
                0xa0002790                BARRIER
                0xa00027c8                SHELLDER
                0xa00027fc                HORSEA
                0xa0002830                CHARMANDER
                0xa0002864                KANGASKHAN
                0xa0002898                POISONGAS
                0xa00028d0                CONFUSION
                0xa0002908                VULPIX
                0xa000293c                EARTHQUAKE
                0xa0002974                SURF
                0xa00029ac                NIDOKING
                0xa00029e0                POLIWAG
                0xa0002a14                MANKEY
                0xa0002a48                SEADRA
                0xa0002a7c                HEADBUTT
                0xa0002ab4                SPLASH
                0xa0002aec                THUNDERBOLT
                0xa0002b24                SUBMISSION
                0xa0002b5c                MACHOP
                0xa0002b90                SNORLAX
                0xa0002bc4                STARMIE
                0xa0002bf8                RAZORLEAF
                0xa0002c30                VICTREEBEL
                0xa0002c64                EGGBOMB
                0xa0002c9c                MAGMAR
                0xa0002cd0                GEODUDE
                0xa0002d04                CLEFAIRY
                0xa0002d38                STRENGTH
                0xa0002d70                HAUNTER
                0xa0002da4                CHARIZARD
                0xa0002dd8                ICEPUNCH
                0xa0002e10                DIGLETT
                0xa0002e44                POLIWHIRL
                0xa0002e78                DITTO
                0xa0002eac                CONSTRICT
                0xa0002ee4                THUNDERSHOCK
                0xa0002f1c                KOFFING
                0xa0002f50                BUTTERFREE
                0xa0002f84                HORNDRILL
                0xa0002fbc                DIZZYPUNCH
                0xa0002ff4                CRABHAMMER
                0xa000302c                PIDGEOT
                0xa0003060                SMOKESCREEN
                0xa0003098                GRAVELER
                0xa00030cc                WEEZING
                0xa0003100                PSYCHIC
                0xa0003138                SANDSHREW
                0xa000316c                ELECTRODE
                0xa00031a0                HYDROPUMP
                0xa00031d8                AGILITY
                0xa0003210                EMBER
                0xa0003248                DRAGONAIR
                0xa000327c                ROLLINGKICK
                0xa00032b4                JOLTEON
                0xa00032e8                DRILLPECK
                0xa0003320                PIDGEY
                0xa0003354                HYPNOSIS
                0xa000338c                EXPLOSION
                0xa00033c4                WEEPINBELL
                0xa00033f8                TACKLE
                0xa0003430                ELECTABUZZ
                0xa0003464                FISSURE
                0xa000349c                CONFUSERAY
                0xa00034d4                BELLSPROUT
                0xa0003508                POISONSTING
                0xa0003540                MINIMIZE
                0xa0003578                SLOWBRO
                0xa00035ac                ACIDARMOR
                0xa00035e4                PIKACHU
                0xa0003618                FEAROW
                0xa000364c                STOMP
                0xa0003684                PARAS
                0xa00036b8                ABRA
                0xa00036ec                MAGIKARP
                0xa0003720                RHYHORN
                0xa0003754                BLASTOISE
                0xa0003788                CLOYSTER
                0xa00037bc                KARATECHOP
                0xa00037f4                RATICATE
                0xa0003828                JYNX
                0xa000385c                OMANYTE
                0xa0003890                SANDSLASH
                0xa00038c4                ARBOK
                0xa00038f8                LEECHLIFE
                0xa0003930                SCRATCH
                0xa0003968                HORNATTACK
                0xa00039a0                KRABBY
                0xa00039d4                LICK
                0xa0003a0c                DOUBLETEAM
                0xa0003a44                ROCKSLIDE
                0xa0003a7c                NINETALES
                0xa0003ab0                CHARMELEON
                0xa0003ae4                MACHOKE
                0xa0003b18                KINGLER
                0xa0003b4c                WEEDLE
                0xa0003b80                VENONAT
                0xa0003bb4                MAGNEMITE
                0xa0003be8                PINMISSILE
                0xa0003c20                DEWGONG
                0xa0003c54                NIDORAN_M
                0xa0003c88                SMOG
                0xa0003cc0                NIDORAN_F
                0xa0003cf4                KABUTO
                0xa0003d28                BUBBLE
                0xa0003d60                LOVELYKISS
                0xa0003d98                HYPERBEAM
                0xa0003dd0                MAROWAK
                0xa0003e04                MACHAMP
                0xa0003e38                RAPIDASH
                0xa0003e6c                PINSIR
                0xa0003ea0                MEGAPUNCH
                0xa0003ed8                LAPRAS
                0xa0003f0c                ODDISH
                0xa0003f40                THUNDER
                0xa0003f78                EXEGGCUTE
                0xa0003fac                SUPERSONIC
                0xa0003fe4                ABSORB
                0xa000401c                CUT
                0xa0004054                ACID
                0xa000408c                GUST
                0xa00040c4                DODRIO
                0xa00040f8                HITMONCHAN
                0xa000412c                GASTLY
                0xa0004160                MEW
                0xa0004194                VINEWHIP
                0xa00041cc                TAILWHIP
                0xa0004204                GROWL
                0xa000423c                JIGGLYPUFF
                0xa0004270                SLAM
                0xa00042a8                POUND
                0xa00042e0                AMNESIA
                0xa0004318                FIREBLAST
                0xa0004350                PECK
                0xa0004388                PSYDUCK
                0xa00043bc                OMASTAR
                0xa00043f0                STARYU
                0xa0004424                SLEEPPOWDER
                0xa000445c                MEGAKICK
                0xa0004494                VAPOREON
                0xa00044c8                MEDITATE
                0xa0004500                DRATINI
                0xa0004534                SEEL
                0xa0004568                ARCANINE
                0xa000459c                METAPOD
                0xa00045d0                PAYDAY
                0xa0004608                SCYTHER
                0xa000463c                SHARPEN
                0xa0004674                THUNDERWAVE
                0xa00046ac                EXEGGUTOR
                0xa00046e0                SCREECH
                0xa0004718                EKANS
                0xa000474c                PARASECT
                0xa0004780                GOLBAT
                0xa00047b4                BLIZZARD
                0xa00047ec                AURORABEAM
                0xa0004824                MRMIME
                0xa0004858                MEGADRAIN
                0xa0004890                SPEAROW
                0xa00048c4                RHYDON
                0xa00048f8                WINGATTACK
                0xa0004930                KABUTOPS
                0xa0004964                VOLTORB
                0xa0004998                VILEPLUME
                0xa00049cc                TOXIC
                0xa0004a04                KADABRA
                0xa0004a38                BODYSLAM
                0xa0004a70                MUK
                0xa0004aa4                DUGTRIO
                0xa0004ad8                TANGELA
                0xa0004b0c                GENGAR
                0xa0004b40                MAGNETON
                0xa0004b74                QUICKATTACK
                0xa0004bac                SLOWPOKE
                0xa0004be0                RATTATA
                0xa0004c14                ICEBEAM
                0xa0004c4c                STRUGGLE
                0xa0004c84                NIDOQUEEN
                0xa0004cb8                EEVEE
                0xa0004cec                WARTORTLE
                0xa0004d20                MEOWTH
                0xa0004d54                POISONPOWDER
                0xa0004d8c                CLEFABLE
                0xa0004dc0                DROWZEE
                0xa0004df4                PIDGEOTTO
                0xa0004e28                AERODACTYL
                0xa0004e5c                ALAKAZAM
                0xa0004e90                TENTACOOL
                0xa0004ec4                GYARADOS
                0xa0004ef8                DEFENSECURL
                0xa0004f30                GUILLOTINE
                0xa0004f68                PONYTA
                0xa0004f9c                CUBONE
                0xa0004fd0                HITMONLEE
                0xa0005004                LICKITUNG
                0xa0005038                GOLDEEN
                0xa000506c                ONIX
                0xa00050a0                ARTICUNO
                0xa00050d4                KINESIS
                0xa000510c                DOUBLEEDGE
                0xa0005144                HYPERFANG
                0xa000517c                IVYSAUR
                0xa00051b0                FARFETCHD
                0xa00051e4                ZAPDOS
                0xa0005218                STRINGSHOT
                0xa0005250                BUBBLEBEAM
                0xa0005288                GLOOM
                0xa00052bc                HARDEN
                0xa00052f4                STUNSPORE
                0xa000532c                NIDORINA
                0xa0005360                SPORE
                0xa0005398                FLAREON
                0xa00053cc                BEEDRILL
                0xa0005400                GROWTH
                0xa0005438                MEWTWO
                0xa000546c                WATERFALL
                0xa00054a4                DODUO
                0xa00054d8                LEER
                0xa0005510                DRAGONITE
                0xa0005544                FLAMETHROWER
                0xa000557c                VENUSAUR
                0xa00055b0                GOLDUCK
                0xa00055e4                SING
                0xa000561c                TAKEDOWN
                0xa0005654                POLIWRATH
                0xa0005688                WIGGLYTUFF
                0xa00056bc                TAUROS
                0xa00056f0                ZUBAT
                0xa0005724                CHANSEY
                0xa0005758                THUNDERPUNCH
                0xa0005790                SEAKING
                0xa00057c4                BULBASAUR
                0xa00057f8                VENOMOTH
                0xa000582c                CATERPIE
                0xa0005860                KAKUNA
                0xa0005894                ROCKTHROW
                0xa00058cc                SLUDGE
                0xa0005904                HAZE
                0xa000593c                FIREPUNCH
                0xa0005974                GLARE
                0xa00059ac                HYPNO
                0xa00059e0                MOLTRES
 COMMON         0xa0005a14      0x6f0 Object - MDD File System-SD Card\global.o
                0xa0005a14                BLUE_ALAKAZAM
                0xa0005aa8                RED_CHARIZARD
                0xa0005b3c                BLUE_BLASTOISE
                0xa0005bd0                BLUE_ARCANINE
                0xa0005c64                RED_LAPRAS
                0xa0005cf8                RED_VENUSAUR
                0xa0005d8c                BLUE_RHYDON
                0xa0005e20                BLUE_PIDGEOT
                0xa0005eb4                RED_PIKACHU
                0xa0005f48                RED_BLASTOISE
                0xa0005fdc                RED_SNORLAX
                0xa0006070                BLUE_EXEGGUTOR
                0xa0006104                . = ALIGN (0x4)
                0xa0006104                . = ALIGN (0x4)
                0xa0006104                _end = .
                0xa0006104                _bss_end = .
                0x00010000                _bmxdudba_address = 0x10000
                0x00010000                _bmxdupba_address = 0x10000

/DISCARD/
 *(.pdr)
 *(.reginfo)
 *(.rel.dyn)
 *(.note.GNU-stack)
 *(.note.GNU-stack)
 *(.gnu_debuglink)
 *(.gnu.lto_*)
 *(.discard)

.stab
 *(.stab)

.stabstr
 *(.stabstr)

.stab.excl
 *(.stab.excl)

.stab.exclstr
 *(.stab.exclstr)

.stab.index
 *(.stab.index)

.stab.indexstr
 *(.stab.indexstr)

.comment        0x00000000      0x28f
 *(.comment)
 .comment       0x00000000       0x51 Object - MDD File System-SD Card\SD-SPI.o
                                 0x52 (size before relaxing)
 .comment       0x00000000       0x52 Object - MDD File System-SD Card\FSIO.o
 .comment       0x00000000       0x52 Object - MDD File System-SD Card\Demonstration1.o
 .comment       0x00000000       0x52 Object - MDD File System-SD Card\buttons.o
 .comment       0x00000000       0x52 Object - MDD File System-SD Card\sendspi.o
 .comment       0x00000000       0x52 Object - MDD File System-SD Card\bitbang.o
 .comment       0x00000000       0x52 Object - MDD File System-SD Card\battle-p.o
 .comment       0x00000000       0x52 Object - MDD File System-SD Card\eor-p.o
 .comment       0x00000000       0x52 Object - MDD File System-SD Card\game.o
 .comment       0x00000000       0x52 Object - MDD File System-SD Card\global.o
 .comment       0x00000000       0x52 Object - MDD File System-SD Card\input-p.o
 .comment       0x00000000       0x52 Object - MDD File System-SD Card\win-p.o
 .comment       0x00000051       0x55 c:/program files (x86)/microchip/mplabc32/v2.01/bin/../lib/gcc/pic32mx/4.5.1/../../../../pic32mx/lib\libc.a(memset.o)
                                 0x56 (size before relaxing)
 .comment       0x000000a6       0x55 c:/program files (x86)/microchip/mplabc32/v2.01/bin/../lib/gcc/pic32mx/4.5.1/../../../../pic32mx/lib\libc.a(strcpy.o)
                                 0x56 (size before relaxing)
 .comment       0x000000fb       0x55 c:/program files (x86)/microchip/mplabc32/v2.01/bin/../lib/gcc/pic32mx/4.5.1/../../../../pic32mx/lib\libc.a(strlen.o)
                                 0x56 (size before relaxing)
 .comment       0x00000150       0xa0 c:/program files (x86)/microchip/mplabc32/v2.01/bin/../lib/gcc/pic32mx/4.5.1/../../../../pic32mx/lib\libc.a(ctypef.o)
                                 0xa1 (size before relaxing)
 .comment       0x00000000       0x52 c:/program files (x86)/microchip/mplabc32/v2.01/bin/../lib/gcc/pic32mx/4.5.1/../../../../pic32mx/lib\libc.a(rand.o)
 .comment       0x00000000       0x52 c:/program files (x86)/microchip/mplabc32/v2.01/bin/../lib/gcc/pic32mx/4.5.1/../../../../pic32mx/lib\libc.a(strcat.o)
 .comment       0x00000000       0x52 c:/program files (x86)/microchip/mplabc32/v2.01/bin/../lib/gcc/pic32mx/4.5.1/../../../../pic32mx/lib\libc.a(strncpy.o)
 .comment       0x00000000       0x52 c:/program files (x86)/microchip/mplabc32/v2.01/bin/../lib/gcc/pic32mx/4.5.1/../../../../pic32mx/lib\libc.a(sprintf_cdnopsuxX.eo)
 .comment       0x00000000       0x52 c:/program files (x86)/microchip/mplabc32/v2.01/bin/../lib/gcc/pic32mx/4.5.1/../../../../pic32mx/lib\libc.a(default-general-exception-handler.o)
 .comment       0x00000000       0x52 c:/program files (x86)/microchip/mplabc32/v2.01/bin/../lib/gcc/pic32mx/4.5.1/../../../../pic32mx/lib\libc.a(default-bootstrap-exception-handler.o)
 .comment       0x00000000       0x52 c:/program files (x86)/microchip/mplabc32/v2.01/bin/../lib/gcc/pic32mx/4.5.1/../../../../pic32mx/lib\libc.a(default-on-reset.o)
 .comment       0x00000000       0x52 c:/program files (x86)/microchip/mplabc32/v2.01/bin/../lib/gcc/pic32mx/4.5.1/../../../../pic32mx/lib\libc.a(default-on-bootstrap.o)
 .comment       0x000001f0       0x4e c:/program files (x86)/microchip/mplabc32/v2.01/bin/../lib/gcc/pic32mx/4.5.1/../../../../pic32mx/lib\libc.a(ctype.o)
                                 0xa0 (size before relaxing)
 .comment       0x00000000       0x52 c:/program files (x86)/microchip/mplabc32/v2.01/bin/../lib/gcc/pic32mx/4.5.1/../../../../pic32mx/lib\libc.a(doprnt_cdnopsuxX.eo)
 .comment       0x00000000       0x52 c:/program files (x86)/microchip/mplabc32/v2.01/bin/../lib/gcc/pic32mx/4.5.1/../../../../pic32mx/lib\libc.a(_fputc_simple.o)
 .comment       0x00000000       0x52 c:/program files (x86)/microchip/mplabc32/v2.01/bin/../lib/gcc/pic32mx/4.5.1/../../../../pic32mx/lib\libc.a(write.o)
 .comment       0x00000000       0x52 c:/program files (x86)/microchip/mplabc32/v2.01/bin/../lib/gcc/pic32mx/4.5.1/../../../../pic32mx/lib\libc.a(_iob.o)
 .comment       0x00000000       0x52 c:/program files (x86)/microchip/mplabc32/v2.01/bin/../lib/gcc/pic32mx/4.5.1/../../../../pic32mx/lib\libc.a(_flsbuf_simple.o)
 .comment       0x00000000       0x52 c:/program files (x86)/microchip/mplabc32/v2.01/bin/../lib/gcc/pic32mx/4.5.1/../../../../pic32mx/lib\libc.a(_mon_putc.o)
 .comment       0x00000000       0x52 c:/program files (x86)/microchip/mplabc32/v2.01/bin/../lib/gcc/pic32mx/4.5.1/../../../../pic32mx/lib\libc.a(c32_uart.o)
 .comment       0x0000023e       0x51 c:/program files (x86)/microchip/mplabc32/v2.01/bin/../lib/gcc/pic32mx/4.5.1/../../../../pic32mx/lib\libmchp_peripheral_32MX675F512H.a(pcache.o)
                                 0x52 (size before relaxing)
 .comment       0x00000000       0x52 c:/program files (x86)/microchip/mplabc32/v2.01/bin/../lib/gcc/pic32mx/4.5.1/../../../../pic32mx/lib\libmchp_peripheral_32MX675F512H.a(int_disable_interrupts_lib.o)
 .comment       0x00000000       0x52 c:/program files (x86)/microchip/mplabc32/v2.01/bin/../lib/gcc/pic32mx/4.5.1/../../../../pic32mx/lib\libmchp_peripheral_32MX675F512H.a(int_restore_interrupts_lib.o)
 .comment       0x00000000       0x52 c:/program files (x86)/microchip/mplabc32/v2.01/bin/../lib/gcc/pic32mx/4.5.1/../../../../pic32mx/lib\libmchp_peripheral_32MX675F512H.a(int_enable_mv_int_lib.o)
 .comment       0x00000000       0x52 c:/program files (x86)/microchip/mplabc32/v2.01/bin/../lib/gcc/pic32mx/4.5.1/../../../../pic32mx/lib\libmchp_peripheral_32MX675F512H.a(rtcc_open_lib.o)
 .comment       0x00000000       0x52 c:/program files (x86)/microchip/mplabc32/v2.01/bin/../lib/gcc/pic32mx/4.5.1/../../../../pic32mx/lib\libmchp_peripheral_32MX675F512H.a(spi_getc_spi2_lib_legacy.o)
 .comment       0x00000000       0x52 c:/program files (x86)/microchip/mplabc32/v2.01/bin/../lib/gcc/pic32mx/4.5.1/../../../../pic32mx/lib\libmchp_peripheral_32MX675F512H.a(spi_open_spi2_lib_legacy.o)
 .comment       0x00000000       0x52 c:/program files (x86)/microchip/mplabc32/v2.01/bin/../lib/gcc/pic32mx/4.5.1/../../../../pic32mx/lib\libmchp_peripheral_32MX675F512H.a(spi_brg_tbl_lib_legacy.o)
 .comment       0x00000000       0x52 c:/program files (x86)/microchip/mplabc32/v2.01/bin/../lib/gcc/pic32mx/4.5.1/../../../../pic32mx/lib\libmchp_peripheral_32MX675F512H.a(int_enable_interrupts_lib.o)
 .comment       0x00000000       0x52 c:/program files (x86)/microchip/mplabc32/v2.01/bin/../lib/gcc/pic32mx/4.5.1/../../../../pic32mx/lib\libmchp_peripheral_32MX675F512H.a(int_tbl_lib.o)
 .comment       0x00000000       0x52 c:/program files (x86)/microchip/mplabc32/v2.01/bin/../lib/gcc/pic32mx/4.5.1/../../../../pic32mx/lib\libmchp_peripheral_32MX675F512H.a(_rtcc_wait_clock_off_lib.o)
 .comment       0x00000000       0x52 c:/program files (x86)/microchip/mplabc32/v2.01/bin/../lib/gcc/pic32mx/4.5.1/../../../../pic32mx/lib\libmchp_peripheral_32MX675F512H.a(read_core_timer_lib.o)
 .comment       0x00000000       0x52 c:/program files (x86)/microchip/mplabc32/v2.01/bin/../lib/gcc/pic32mx/4.5.1\libgcc.a(_udivdi3.o)
 .comment       0x00000000       0x52 c:/program files (x86)/microchip/mplabc32/v2.01/bin/../lib/gcc/pic32mx/4.5.1\libgcc.a(_umoddi3.o)

.debug
 *(.debug)

.line
 *(.line)

.debug_srcinfo
 *(.debug_srcinfo)

.debug_sfnames
 *(.debug_sfnames)

.debug_aranges  0x00000000      0x5b8
 *(.debug_aranges)
 .debug_aranges
                0x00000000       0x20 Object - MDD File System-SD Card\SD-SPI.o
 .debug_aranges
                0x00000020       0x20 Object - MDD File System-SD Card\FSIO.o
 .debug_aranges
                0x00000040       0x20 Object - MDD File System-SD Card\Demonstration1.o
 .debug_aranges
                0x00000060       0x20 Object - MDD File System-SD Card\buttons.o
 .debug_aranges
                0x00000080       0x20 Object - MDD File System-SD Card\sendspi.o
 .debug_aranges
                0x000000a0       0x20 Object - MDD File System-SD Card\bitbang.o
 .debug_aranges
                0x000000c0       0x20 Object - MDD File System-SD Card\battle-p.o
 .debug_aranges
                0x000000e0       0x20 Object - MDD File System-SD Card\eor-p.o
 .debug_aranges
                0x00000100       0x20 Object - MDD File System-SD Card\game.o
 .debug_aranges
                0x00000120       0x20 Object - MDD File System-SD Card\global.o
 .debug_aranges
                0x00000140       0x20 Object - MDD File System-SD Card\input-p.o
 .debug_aranges
                0x00000160       0x20 Object - MDD File System-SD Card\win-p.o
 .debug_aranges
                0x00000180       0xa0 c:/program files (x86)/microchip/mplabc32/v2.01/bin/../lib/gcc/pic32mx/4.5.1/../../../../pic32mx/lib\libc.a(ctypef.o)
 .debug_aranges
                0x00000220       0x28 c:/program files (x86)/microchip/mplabc32/v2.01/bin/../lib/gcc/pic32mx/4.5.1/../../../../pic32mx/lib\libc.a(rand.o)
 .debug_aranges
                0x00000248       0x20 c:/program files (x86)/microchip/mplabc32/v2.01/bin/../lib/gcc/pic32mx/4.5.1/../../../../pic32mx/lib\libc.a(strcat.o)
 .debug_aranges
                0x00000268       0x20 c:/program files (x86)/microchip/mplabc32/v2.01/bin/../lib/gcc/pic32mx/4.5.1/../../../../pic32mx/lib\libc.a(strncpy.o)
 .debug_aranges
                0x00000288       0x20 c:/program files (x86)/microchip/mplabc32/v2.01/bin/../lib/gcc/pic32mx/4.5.1/../../../../pic32mx/lib\libc.a(sprintf_cdnopsuxX.eo)
 .debug_aranges
                0x000002a8       0x20 c:/program files (x86)/microchip/mplabc32/v2.01/bin/../lib/gcc/pic32mx/4.5.1/../../../../pic32mx/lib\libc.a(default-general-exception-handler.o)
 .debug_aranges
                0x000002c8       0x20 c:/program files (x86)/microchip/mplabc32/v2.01/bin/../lib/gcc/pic32mx/4.5.1/../../../../pic32mx/lib\libc.a(default-bootstrap-exception-handler.o)
 .debug_aranges
                0x000002e8       0x20 c:/program files (x86)/microchip/mplabc32/v2.01/bin/../lib/gcc/pic32mx/4.5.1/../../../../pic32mx/lib\libc.a(default-on-reset.o)
 .debug_aranges
                0x00000308       0x20 c:/program files (x86)/microchip/mplabc32/v2.01/bin/../lib/gcc/pic32mx/4.5.1/../../../../pic32mx/lib\libc.a(default-on-bootstrap.o)
 .debug_aranges
                0x00000328       0x20 c:/program files (x86)/microchip/mplabc32/v2.01/bin/../lib/gcc/pic32mx/4.5.1/../../../../pic32mx/lib\libc.a(doprnt_cdnopsuxX.eo)
 .debug_aranges
                0x00000348       0x20 c:/program files (x86)/microchip/mplabc32/v2.01/bin/../lib/gcc/pic32mx/4.5.1/../../../../pic32mx/lib\libc.a(_fputc_simple.o)
 .debug_aranges
                0x00000368       0x20 c:/program files (x86)/microchip/mplabc32/v2.01/bin/../lib/gcc/pic32mx/4.5.1/../../../../pic32mx/lib\libc.a(write.o)
 .debug_aranges
                0x00000388       0x20 c:/program files (x86)/microchip/mplabc32/v2.01/bin/../lib/gcc/pic32mx/4.5.1/../../../../pic32mx/lib\libc.a(_flsbuf_simple.o)
 .debug_aranges
                0x000003a8       0x20 c:/program files (x86)/microchip/mplabc32/v2.01/bin/../lib/gcc/pic32mx/4.5.1/../../../../pic32mx/lib\libc.a(_mon_putc.o)
 .debug_aranges
                0x000003c8       0x28 c:/program files (x86)/microchip/mplabc32/v2.01/bin/../lib/gcc/pic32mx/4.5.1/../../../../pic32mx/lib\libmchp_peripheral_32MX675F512H.a(pcache.o)
 .debug_aranges
                0x000003f0       0x20 c:/program files (x86)/microchip/mplabc32/v2.01/bin/../lib/gcc/pic32mx/4.5.1/../../../../pic32mx/lib\libmchp_peripheral_32MX675F512H.a(int_disable_interrupts_lib.o)
 .debug_aranges
                0x00000410       0x20 c:/program files (x86)/microchip/mplabc32/v2.01/bin/../lib/gcc/pic32mx/4.5.1/../../../../pic32mx/lib\libmchp_peripheral_32MX675F512H.a(int_restore_interrupts_lib.o)
 .debug_aranges
                0x00000430       0x20 c:/program files (x86)/microchip/mplabc32/v2.01/bin/../lib/gcc/pic32mx/4.5.1/../../../../pic32mx/lib\libmchp_peripheral_32MX675F512H.a(int_enable_mv_int_lib.o)
 .debug_aranges
                0x00000450       0x20 c:/program files (x86)/microchip/mplabc32/v2.01/bin/../lib/gcc/pic32mx/4.5.1/../../../../pic32mx/lib\libmchp_peripheral_32MX675F512H.a(rtcc_open_lib.o)
 .debug_aranges
                0x00000470       0x20 c:/program files (x86)/microchip/mplabc32/v2.01/bin/../lib/gcc/pic32mx/4.5.1/../../../../pic32mx/lib\libmchp_peripheral_32MX675F512H.a(spi_getc_spi2_lib_legacy.o)
 .debug_aranges
                0x00000490       0x20 c:/program files (x86)/microchip/mplabc32/v2.01/bin/../lib/gcc/pic32mx/4.5.1/../../../../pic32mx/lib\libmchp_peripheral_32MX675F512H.a(spi_open_spi2_lib_legacy.o)
 .debug_aranges
                0x000004b0       0x20 c:/program files (x86)/microchip/mplabc32/v2.01/bin/../lib/gcc/pic32mx/4.5.1/../../../../pic32mx/lib\libmchp_peripheral_32MX675F512H.a(int_enable_interrupts_lib.o)
 .debug_aranges
                0x000004d0       0x60 c:/program files (x86)/microchip/mplabc32/v2.01/bin/../lib/gcc/pic32mx/4.5.1/../../../../pic32mx/lib\libmchp_peripheral_32MX675F512H.a(int_tbl_lib.o)
 .debug_aranges
                0x00000530       0x28 c:/program files (x86)/microchip/mplabc32/v2.01/bin/../lib/gcc/pic32mx/4.5.1/../../../../pic32mx/lib\libmchp_peripheral_32MX675F512H.a(_rtcc_wait_clock_off_lib.o)
 .debug_aranges
                0x00000558       0x20 c:/program files (x86)/microchip/mplabc32/v2.01/bin/../lib/gcc/pic32mx/4.5.1/../../../../pic32mx/lib\libmchp_peripheral_32MX675F512H.a(read_core_timer_lib.o)
 .debug_aranges
                0x00000578       0x20 c:/program files (x86)/microchip/mplabc32/v2.01/bin/../lib/gcc/pic32mx/4.5.1\libgcc.a(_udivdi3.o)
 .debug_aranges
                0x00000598       0x20 c:/program files (x86)/microchip/mplabc32/v2.01/bin/../lib/gcc/pic32mx/4.5.1\libgcc.a(_umoddi3.o)

.debug_pubnames
                0x00000000     0x336b
 *(.debug_pubnames)
 .debug_pubnames
                0x00000000      0x1fc Object - MDD File System-SD Card\SD-SPI.o
 .debug_pubnames
                0x000001fc      0x6d5 Object - MDD File System-SD Card\FSIO.o
 .debug_pubnames
                0x000008d1       0x46 Object - MDD File System-SD Card\Demonstration1.o
 .debug_pubnames
                0x00000917       0x25 Object - MDD File System-SD Card\buttons.o
 .debug_pubnames
                0x0000093c       0x51 Object - MDD File System-SD Card\sendspi.o
 .debug_pubnames
                0x0000098d       0xce Object - MDD File System-SD Card\bitbang.o
 .debug_pubnames
                0x00000a5b      0x2e4 Object - MDD File System-SD Card\battle-p.o
 .debug_pubnames
                0x00000d3f       0xf2 Object - MDD File System-SD Card\eor-p.o
 .debug_pubnames
                0x00000e31      0xdaf Object - MDD File System-SD Card\game.o
 .debug_pubnames
                0x00001be0     0x1059 Object - MDD File System-SD Card\global.o
 .debug_pubnames
                0x00002c39       0xec Object - MDD File System-SD Card\input-p.o
 .debug_pubnames
                0x00002d25       0xda Object - MDD File System-SD Card\win-p.o
 .debug_pubnames
                0x00002dff       0xe1 c:/program files (x86)/microchip/mplabc32/v2.01/bin/../lib/gcc/pic32mx/4.5.1/../../../../pic32mx/lib\libc.a(ctypef.o)
 .debug_pubnames
                0x00002ee0       0x25 c:/program files (x86)/microchip/mplabc32/v2.01/bin/../lib/gcc/pic32mx/4.5.1/../../../../pic32mx/lib\libc.a(rand.o)
 .debug_pubnames
                0x00002f05       0x1d c:/program files (x86)/microchip/mplabc32/v2.01/bin/../lib/gcc/pic32mx/4.5.1/../../../../pic32mx/lib\libc.a(strcat.o)
 .debug_pubnames
                0x00002f22       0x1e c:/program files (x86)/microchip/mplabc32/v2.01/bin/../lib/gcc/pic32mx/4.5.1/../../../../pic32mx/lib\libc.a(strncpy.o)
 .debug_pubnames
                0x00002f40       0x29 c:/program files (x86)/microchip/mplabc32/v2.01/bin/../lib/gcc/pic32mx/4.5.1/../../../../pic32mx/lib\libc.a(sprintf_cdnopsuxX.eo)
 .debug_pubnames
                0x00002f69       0x31 c:/program files (x86)/microchip/mplabc32/v2.01/bin/../lib/gcc/pic32mx/4.5.1/../../../../pic32mx/lib\libc.a(default-general-exception-handler.o)
 .debug_pubnames
                0x00002f9a       0x33 c:/program files (x86)/microchip/mplabc32/v2.01/bin/../lib/gcc/pic32mx/4.5.1/../../../../pic32mx/lib\libc.a(default-bootstrap-exception-handler.o)
 .debug_pubnames
                0x00002fcd       0x20 c:/program files (x86)/microchip/mplabc32/v2.01/bin/../lib/gcc/pic32mx/4.5.1/../../../../pic32mx/lib\libc.a(default-on-reset.o)
 .debug_pubnames
                0x00002fed       0x24 c:/program files (x86)/microchip/mplabc32/v2.01/bin/../lib/gcc/pic32mx/4.5.1/../../../../pic32mx/lib\libc.a(default-on-bootstrap.o)
 .debug_pubnames
                0x00003011       0x2a c:/program files (x86)/microchip/mplabc32/v2.01/bin/../lib/gcc/pic32mx/4.5.1/../../../../pic32mx/lib\libc.a(doprnt_cdnopsuxX.eo)
 .debug_pubnames
                0x0000303b       0x1c c:/program files (x86)/microchip/mplabc32/v2.01/bin/../lib/gcc/pic32mx/4.5.1/../../../../pic32mx/lib\libc.a(_fputc_simple.o)
 .debug_pubnames
                0x00003057       0x1c c:/program files (x86)/microchip/mplabc32/v2.01/bin/../lib/gcc/pic32mx/4.5.1/../../../../pic32mx/lib\libc.a(write.o)
 .debug_pubnames
                0x00003073       0x1e c:/program files (x86)/microchip/mplabc32/v2.01/bin/../lib/gcc/pic32mx/4.5.1/../../../../pic32mx/lib\libc.a(_flsbuf_simple.o)
 .debug_pubnames
                0x00003091       0x20 c:/program files (x86)/microchip/mplabc32/v2.01/bin/../lib/gcc/pic32mx/4.5.1/../../../../pic32mx/lib\libc.a(_mon_putc.o)
 .debug_pubnames
                0x000030b1       0x3b c:/program files (x86)/microchip/mplabc32/v2.01/bin/../lib/gcc/pic32mx/4.5.1/../../../../pic32mx/lib\libmchp_peripheral_32MX675F512H.a(pcache.o)
 .debug_pubnames
                0x000030ec       0x2b c:/program files (x86)/microchip/mplabc32/v2.01/bin/../lib/gcc/pic32mx/4.5.1/../../../../pic32mx/lib\libmchp_peripheral_32MX675F512H.a(int_disable_interrupts_lib.o)
 .debug_pubnames
                0x00003117       0x2b c:/program files (x86)/microchip/mplabc32/v2.01/bin/../lib/gcc/pic32mx/4.5.1/../../../../pic32mx/lib\libmchp_peripheral_32MX675F512H.a(int_restore_interrupts_lib.o)
 .debug_pubnames
                0x00003142       0x36 c:/program files (x86)/microchip/mplabc32/v2.01/bin/../lib/gcc/pic32mx/4.5.1/../../../../pic32mx/lib\libmchp_peripheral_32MX675F512H.a(int_enable_mv_int_lib.o)
 .debug_pubnames
                0x00003178       0x1f c:/program files (x86)/microchip/mplabc32/v2.01/bin/../lib/gcc/pic32mx/4.5.1/../../../../pic32mx/lib\libmchp_peripheral_32MX675F512H.a(rtcc_open_lib.o)
 .debug_pubnames
                0x00003197       0x1f c:/program files (x86)/microchip/mplabc32/v2.01/bin/../lib/gcc/pic32mx/4.5.1/../../../../pic32mx/lib\libmchp_peripheral_32MX675F512H.a(spi_getc_spi2_lib_legacy.o)
 .debug_pubnames
                0x000031b6       0x1f c:/program files (x86)/microchip/mplabc32/v2.01/bin/../lib/gcc/pic32mx/4.5.1/../../../../pic32mx/lib\libmchp_peripheral_32MX675F512H.a(spi_open_spi2_lib_legacy.o)
 .debug_pubnames
                0x000031d5       0x2a c:/program files (x86)/microchip/mplabc32/v2.01/bin/../lib/gcc/pic32mx/4.5.1/../../../../pic32mx/lib\libmchp_peripheral_32MX675F512H.a(int_enable_interrupts_lib.o)
 .debug_pubnames
                0x000031ff       0xca c:/program files (x86)/microchip/mplabc32/v2.01/bin/../lib/gcc/pic32mx/4.5.1/../../../../pic32mx/lib\libmchp_peripheral_32MX675F512H.a(int_tbl_lib.o)
 .debug_pubnames
                0x000032c9       0x3e c:/program files (x86)/microchip/mplabc32/v2.01/bin/../lib/gcc/pic32mx/4.5.1/../../../../pic32mx/lib\libmchp_peripheral_32MX675F512H.a(_rtcc_wait_clock_off_lib.o)
 .debug_pubnames
                0x00003307       0x24 c:/program files (x86)/microchip/mplabc32/v2.01/bin/../lib/gcc/pic32mx/4.5.1/../../../../pic32mx/lib\libmchp_peripheral_32MX675F512H.a(read_core_timer_lib.o)
 .debug_pubnames
                0x0000332b       0x20 c:/program files (x86)/microchip/mplabc32/v2.01/bin/../lib/gcc/pic32mx/4.5.1\libgcc.a(_udivdi3.o)
 .debug_pubnames
                0x0000334b       0x20 c:/program files (x86)/microchip/mplabc32/v2.01/bin/../lib/gcc/pic32mx/4.5.1\libgcc.a(_umoddi3.o)

.debug_info     0x00000000    0x19aa0
 *(.debug_info .gnu.linkonce.wi.*)
 .debug_info    0x00000000     0x2b9b Object - MDD File System-SD Card\SD-SPI.o
 .debug_info    0x00002b9b     0x577d Object - MDD File System-SD Card\FSIO.o
 .debug_info    0x00008318     0x1d82 Object - MDD File System-SD Card\Demonstration1.o
 .debug_info    0x0000a09a      0x3fc Object - MDD File System-SD Card\buttons.o
 .debug_info    0x0000a496      0x5d5 Object - MDD File System-SD Card\sendspi.o
 .debug_info    0x0000aa6b     0x1a2e Object - MDD File System-SD Card\bitbang.o
 .debug_info    0x0000c499     0x1b08 Object - MDD File System-SD Card\battle-p.o
 .debug_info    0x0000dfa1     0x1055 Object - MDD File System-SD Card\eor-p.o
 .debug_info    0x0000eff6     0x26b8 Object - MDD File System-SD Card\game.o
 .debug_info    0x000116ae     0x3b7c Object - MDD File System-SD Card\global.o
 .debug_info    0x0001522a     0x110c Object - MDD File System-SD Card\input-p.o
 .debug_info    0x00016336     0x106e Object - MDD File System-SD Card\win-p.o
 .debug_info    0x000173a4      0x235 c:/program files (x86)/microchip/mplabc32/v2.01/bin/../lib/gcc/pic32mx/4.5.1/../../../../pic32mx/lib\libc.a(ctypef.o)
 .debug_info    0x000175d9       0xe7 c:/program files (x86)/microchip/mplabc32/v2.01/bin/../lib/gcc/pic32mx/4.5.1/../../../../pic32mx/lib\libc.a(rand.o)
 .debug_info    0x000176c0       0xd1 c:/program files (x86)/microchip/mplabc32/v2.01/bin/../lib/gcc/pic32mx/4.5.1/../../../../pic32mx/lib\libc.a(strcat.o)
 .debug_info    0x00017791       0xd3 c:/program files (x86)/microchip/mplabc32/v2.01/bin/../lib/gcc/pic32mx/4.5.1/../../../../pic32mx/lib\libc.a(strncpy.o)
 .debug_info    0x00017864       0xe5 c:/program files (x86)/microchip/mplabc32/v2.01/bin/../lib/gcc/pic32mx/4.5.1/../../../../pic32mx/lib\libc.a(sprintf_cdnopsuxX.eo)
 .debug_info    0x00017949      0x102 c:/program files (x86)/microchip/mplabc32/v2.01/bin/../lib/gcc/pic32mx/4.5.1/../../../../pic32mx/lib\libc.a(default-general-exception-handler.o)
 .debug_info    0x00017a4b      0x106 c:/program files (x86)/microchip/mplabc32/v2.01/bin/../lib/gcc/pic32mx/4.5.1/../../../../pic32mx/lib\libc.a(default-bootstrap-exception-handler.o)
 .debug_info    0x00017b51       0xe0 c:/program files (x86)/microchip/mplabc32/v2.01/bin/../lib/gcc/pic32mx/4.5.1/../../../../pic32mx/lib\libc.a(default-on-reset.o)
 .debug_info    0x00017c31       0xe8 c:/program files (x86)/microchip/mplabc32/v2.01/bin/../lib/gcc/pic32mx/4.5.1/../../../../pic32mx/lib\libc.a(default-on-bootstrap.o)
 .debug_info    0x00017d19        0x0 c:/program files (x86)/microchip/mplabc32/v2.01/bin/../lib/gcc/pic32mx/4.5.1/../../../../pic32mx/lib\libc.a(ctype.o)
 .debug_info    0x00017d19       0xe6 c:/program files (x86)/microchip/mplabc32/v2.01/bin/../lib/gcc/pic32mx/4.5.1/../../../../pic32mx/lib\libc.a(doprnt_cdnopsuxX.eo)
 .debug_info    0x00017dff       0xd6 c:/program files (x86)/microchip/mplabc32/v2.01/bin/../lib/gcc/pic32mx/4.5.1/../../../../pic32mx/lib\libc.a(_fputc_simple.o)
 .debug_info    0x00017ed5       0xd1 c:/program files (x86)/microchip/mplabc32/v2.01/bin/../lib/gcc/pic32mx/4.5.1/../../../../pic32mx/lib\libc.a(write.o)
 .debug_info    0x00017fa6        0x0 c:/program files (x86)/microchip/mplabc32/v2.01/bin/../lib/gcc/pic32mx/4.5.1/../../../../pic32mx/lib\libc.a(_iob.o)
 .debug_info    0x00017fa6       0xd9 c:/program files (x86)/microchip/mplabc32/v2.01/bin/../lib/gcc/pic32mx/4.5.1/../../../../pic32mx/lib\libc.a(_flsbuf_simple.o)
 .debug_info    0x0001807f       0xd9 c:/program files (x86)/microchip/mplabc32/v2.01/bin/../lib/gcc/pic32mx/4.5.1/../../../../pic32mx/lib\libc.a(_mon_putc.o)
 .debug_info    0x00018158        0x0 c:/program files (x86)/microchip/mplabc32/v2.01/bin/../lib/gcc/pic32mx/4.5.1/../../../../pic32mx/lib\libc.a(c32_uart.o)
 .debug_info    0x00018158       0xd4 c:/program files (x86)/microchip/mplabc32/v2.01/bin/../lib/gcc/pic32mx/4.5.1/../../../../pic32mx/lib\libmchp_peripheral_32MX675F512H.a(pcache.o)
 .debug_info    0x0001822c       0xcb c:/program files (x86)/microchip/mplabc32/v2.01/bin/../lib/gcc/pic32mx/4.5.1/../../../../pic32mx/lib\libmchp_peripheral_32MX675F512H.a(int_disable_interrupts_lib.o)
 .debug_info    0x000182f7       0xcb c:/program files (x86)/microchip/mplabc32/v2.01/bin/../lib/gcc/pic32mx/4.5.1/../../../../pic32mx/lib\libmchp_peripheral_32MX675F512H.a(int_restore_interrupts_lib.o)
 .debug_info    0x000183c2       0xd1 c:/program files (x86)/microchip/mplabc32/v2.01/bin/../lib/gcc/pic32mx/4.5.1/../../../../pic32mx/lib\libmchp_peripheral_32MX675F512H.a(int_enable_mv_int_lib.o)
 .debug_info    0x00018493      0x121 c:/program files (x86)/microchip/mplabc32/v2.01/bin/../lib/gcc/pic32mx/4.5.1/../../../../pic32mx/lib\libmchp_peripheral_32MX675F512H.a(rtcc_open_lib.o)
 .debug_info    0x000185b4       0xbd c:/program files (x86)/microchip/mplabc32/v2.01/bin/../lib/gcc/pic32mx/4.5.1/../../../../pic32mx/lib\libmchp_peripheral_32MX675F512H.a(spi_getc_spi2_lib_legacy.o)
 .debug_info    0x00018671       0xbd c:/program files (x86)/microchip/mplabc32/v2.01/bin/../lib/gcc/pic32mx/4.5.1/../../../../pic32mx/lib\libmchp_peripheral_32MX675F512H.a(spi_open_spi2_lib_legacy.o)
 .debug_info    0x0001872e        0x0 c:/program files (x86)/microchip/mplabc32/v2.01/bin/../lib/gcc/pic32mx/4.5.1/../../../../pic32mx/lib\libmchp_peripheral_32MX675F512H.a(spi_brg_tbl_lib_legacy.o)
 .debug_info    0x0001872e       0xc9 c:/program files (x86)/microchip/mplabc32/v2.01/bin/../lib/gcc/pic32mx/4.5.1/../../../../pic32mx/lib\libmchp_peripheral_32MX675F512H.a(int_enable_interrupts_lib.o)
 .debug_info    0x000187f7      0x1ab c:/program files (x86)/microchip/mplabc32/v2.01/bin/../lib/gcc/pic32mx/4.5.1/../../../../pic32mx/lib\libmchp_peripheral_32MX675F512H.a(int_tbl_lib.o)
 .debug_info    0x000189a2       0xfc c:/program files (x86)/microchip/mplabc32/v2.01/bin/../lib/gcc/pic32mx/4.5.1/../../../../pic32mx/lib\libmchp_peripheral_32MX675F512H.a(_rtcc_wait_clock_off_lib.o)
 .debug_info    0x00018a9e       0xbf c:/program files (x86)/microchip/mplabc32/v2.01/bin/../lib/gcc/pic32mx/4.5.1/../../../../pic32mx/lib\libmchp_peripheral_32MX675F512H.a(read_core_timer_lib.o)
 .debug_info    0x00018b5d      0x783 c:/program files (x86)/microchip/mplabc32/v2.01/bin/../lib/gcc/pic32mx/4.5.1\libgcc.a(_udivdi3.o)
 .debug_info    0x000192e0      0x7c0 c:/program files (x86)/microchip/mplabc32/v2.01/bin/../lib/gcc/pic32mx/4.5.1\libgcc.a(_umoddi3.o)

.debug_abbrev   0x00000000     0x1d43
 *(.debug_abbrev)
 .debug_abbrev  0x00000000      0x358 Object - MDD File System-SD Card\SD-SPI.o
 .debug_abbrev  0x00000358      0x2f6 Object - MDD File System-SD Card\FSIO.o
 .debug_abbrev  0x0000064e      0x2f4 Object - MDD File System-SD Card\Demonstration1.o
 .debug_abbrev  0x00000942       0xaa Object - MDD File System-SD Card\buttons.o
 .debug_abbrev  0x000009ec       0xec Object - MDD File System-SD Card\sendspi.o
 .debug_abbrev  0x00000ad8      0x215 Object - MDD File System-SD Card\bitbang.o
 .debug_abbrev  0x00000ced      0x258 Object - MDD File System-SD Card\battle-p.o
 .debug_abbrev  0x00000f45      0x13c Object - MDD File System-SD Card\eor-p.o
 .debug_abbrev  0x00001081       0xff Object - MDD File System-SD Card\game.o
 .debug_abbrev  0x00001180      0x255 Object - MDD File System-SD Card\global.o
 .debug_abbrev  0x000013d5      0x19c Object - MDD File System-SD Card\input-p.o
 .debug_abbrev  0x00001571      0x149 Object - MDD File System-SD Card\win-p.o
 .debug_abbrev  0x000016ba       0x25 c:/program files (x86)/microchip/mplabc32/v2.01/bin/../lib/gcc/pic32mx/4.5.1/../../../../pic32mx/lib\libc.a(ctypef.o)
 .debug_abbrev  0x000016df       0x41 c:/program files (x86)/microchip/mplabc32/v2.01/bin/../lib/gcc/pic32mx/4.5.1/../../../../pic32mx/lib\libc.a(rand.o)
 .debug_abbrev  0x00001720       0x25 c:/program files (x86)/microchip/mplabc32/v2.01/bin/../lib/gcc/pic32mx/4.5.1/../../../../pic32mx/lib\libc.a(strcat.o)
 .debug_abbrev  0x00001745       0x25 c:/program files (x86)/microchip/mplabc32/v2.01/bin/../lib/gcc/pic32mx/4.5.1/../../../../pic32mx/lib\libc.a(strncpy.o)
 .debug_abbrev  0x0000176a       0x27 c:/program files (x86)/microchip/mplabc32/v2.01/bin/../lib/gcc/pic32mx/4.5.1/../../../../pic32mx/lib\libc.a(sprintf_cdnopsuxX.eo)
 .debug_abbrev  0x00001791       0x25 c:/program files (x86)/microchip/mplabc32/v2.01/bin/../lib/gcc/pic32mx/4.5.1/../../../../pic32mx/lib\libc.a(default-general-exception-handler.o)
 .debug_abbrev  0x000017b6       0x25 c:/program files (x86)/microchip/mplabc32/v2.01/bin/../lib/gcc/pic32mx/4.5.1/../../../../pic32mx/lib\libc.a(default-bootstrap-exception-handler.o)
 .debug_abbrev  0x000017db       0x25 c:/program files (x86)/microchip/mplabc32/v2.01/bin/../lib/gcc/pic32mx/4.5.1/../../../../pic32mx/lib\libc.a(default-on-reset.o)
 .debug_abbrev  0x00001800       0x25 c:/program files (x86)/microchip/mplabc32/v2.01/bin/../lib/gcc/pic32mx/4.5.1/../../../../pic32mx/lib\libc.a(default-on-bootstrap.o)
 .debug_abbrev  0x00001825        0x1 c:/program files (x86)/microchip/mplabc32/v2.01/bin/../lib/gcc/pic32mx/4.5.1/../../../../pic32mx/lib\libc.a(ctype.o)
 .debug_abbrev  0x00001826       0x27 c:/program files (x86)/microchip/mplabc32/v2.01/bin/../lib/gcc/pic32mx/4.5.1/../../../../pic32mx/lib\libc.a(doprnt_cdnopsuxX.eo)
 .debug_abbrev  0x0000184d       0x27 c:/program files (x86)/microchip/mplabc32/v2.01/bin/../lib/gcc/pic32mx/4.5.1/../../../../pic32mx/lib\libc.a(_fputc_simple.o)
 .debug_abbrev  0x00001874       0x25 c:/program files (x86)/microchip/mplabc32/v2.01/bin/../lib/gcc/pic32mx/4.5.1/../../../../pic32mx/lib\libc.a(write.o)
 .debug_abbrev  0x00001899        0x1 c:/program files (x86)/microchip/mplabc32/v2.01/bin/../lib/gcc/pic32mx/4.5.1/../../../../pic32mx/lib\libc.a(_iob.o)
 .debug_abbrev  0x0000189a       0x27 c:/program files (x86)/microchip/mplabc32/v2.01/bin/../lib/gcc/pic32mx/4.5.1/../../../../pic32mx/lib\libc.a(_flsbuf_simple.o)
 .debug_abbrev  0x000018c1       0x25 c:/program files (x86)/microchip/mplabc32/v2.01/bin/../lib/gcc/pic32mx/4.5.1/../../../../pic32mx/lib\libc.a(_mon_putc.o)
 .debug_abbrev  0x000018e6        0x1 c:/program files (x86)/microchip/mplabc32/v2.01/bin/../lib/gcc/pic32mx/4.5.1/../../../../pic32mx/lib\libc.a(c32_uart.o)
 .debug_abbrev  0x000018e7       0x25 c:/program files (x86)/microchip/mplabc32/v2.01/bin/../lib/gcc/pic32mx/4.5.1/../../../../pic32mx/lib\libmchp_peripheral_32MX675F512H.a(pcache.o)
 .debug_abbrev  0x0000190c       0x25 c:/program files (x86)/microchip/mplabc32/v2.01/bin/../lib/gcc/pic32mx/4.5.1/../../../../pic32mx/lib\libmchp_peripheral_32MX675F512H.a(int_disable_interrupts_lib.o)
 .debug_abbrev  0x00001931       0x25 c:/program files (x86)/microchip/mplabc32/v2.01/bin/../lib/gcc/pic32mx/4.5.1/../../../../pic32mx/lib\libmchp_peripheral_32MX675F512H.a(int_restore_interrupts_lib.o)
 .debug_abbrev  0x00001956       0x25 c:/program files (x86)/microchip/mplabc32/v2.01/bin/../lib/gcc/pic32mx/4.5.1/../../../../pic32mx/lib\libmchp_peripheral_32MX675F512H.a(int_enable_mv_int_lib.o)
 .debug_abbrev  0x0000197b       0x41 c:/program files (x86)/microchip/mplabc32/v2.01/bin/../lib/gcc/pic32mx/4.5.1/../../../../pic32mx/lib\libmchp_peripheral_32MX675F512H.a(rtcc_open_lib.o)
 .debug_abbrev  0x000019bc       0x25 c:/program files (x86)/microchip/mplabc32/v2.01/bin/../lib/gcc/pic32mx/4.5.1/../../../../pic32mx/lib\libmchp_peripheral_32MX675F512H.a(spi_getc_spi2_lib_legacy.o)
 .debug_abbrev  0x000019e1       0x25 c:/program files (x86)/microchip/mplabc32/v2.01/bin/../lib/gcc/pic32mx/4.5.1/../../../../pic32mx/lib\libmchp_peripheral_32MX675F512H.a(spi_open_spi2_lib_legacy.o)
 .debug_abbrev  0x00001a06        0x1 c:/program files (x86)/microchip/mplabc32/v2.01/bin/../lib/gcc/pic32mx/4.5.1/../../../../pic32mx/lib\libmchp_peripheral_32MX675F512H.a(spi_brg_tbl_lib_legacy.o)
 .debug_abbrev  0x00001a07       0x25 c:/program files (x86)/microchip/mplabc32/v2.01/bin/../lib/gcc/pic32mx/4.5.1/../../../../pic32mx/lib\libmchp_peripheral_32MX675F512H.a(int_enable_interrupts_lib.o)
 .debug_abbrev  0x00001a2c       0x25 c:/program files (x86)/microchip/mplabc32/v2.01/bin/../lib/gcc/pic32mx/4.5.1/../../../../pic32mx/lib\libmchp_peripheral_32MX675F512H.a(int_tbl_lib.o)
 .debug_abbrev  0x00001a51       0x34 c:/program files (x86)/microchip/mplabc32/v2.01/bin/../lib/gcc/pic32mx/4.5.1/../../../../pic32mx/lib\libmchp_peripheral_32MX675F512H.a(_rtcc_wait_clock_off_lib.o)
 .debug_abbrev  0x00001a85       0x25 c:/program files (x86)/microchip/mplabc32/v2.01/bin/../lib/gcc/pic32mx/4.5.1/../../../../pic32mx/lib\libmchp_peripheral_32MX675F512H.a(read_core_timer_lib.o)
 .debug_abbrev  0x00001aaa      0x13d c:/program files (x86)/microchip/mplabc32/v2.01/bin/../lib/gcc/pic32mx/4.5.1\libgcc.a(_udivdi3.o)
 .debug_abbrev  0x00001be7      0x15c c:/program files (x86)/microchip/mplabc32/v2.01/bin/../lib/gcc/pic32mx/4.5.1\libgcc.a(_umoddi3.o)

.debug_line     0x00000000     0x4e9d
 *(.debug_line)
 .debug_line    0x00000000      0x440 Object - MDD File System-SD Card\SD-SPI.o
 .debug_line    0x00000440     0x1ac8 Object - MDD File System-SD Card\FSIO.o
 .debug_line    0x00001f08      0x2aa Object - MDD File System-SD Card\Demonstration1.o
 .debug_line    0x000021b2       0xde Object - MDD File System-SD Card\buttons.o
 .debug_line    0x00002290       0xda Object - MDD File System-SD Card\sendspi.o
 .debug_line    0x0000236a      0x25e Object - MDD File System-SD Card\bitbang.o
 .debug_line    0x000025c8      0x4b9 Object - MDD File System-SD Card\battle-p.o
 .debug_line    0x00002a81       0x9e Object - MDD File System-SD Card\eor-p.o
 .debug_line    0x00002b1f       0xbe Object - MDD File System-SD Card\game.o
 .debug_line    0x00002bdd     0x1326 Object - MDD File System-SD Card\global.o
 .debug_line    0x00003f03       0xe4 Object - MDD File System-SD Card\input-p.o
 .debug_line    0x00003fe7       0xa6 Object - MDD File System-SD Card\win-p.o
 .debug_line    0x0000408d       0x87 c:/program files (x86)/microchip/mplabc32/v2.01/bin/../lib/gcc/pic32mx/4.5.1/../../../../pic32mx/lib\libc.a(ctypef.o)
 .debug_line    0x00004114       0x85 c:/program files (x86)/microchip/mplabc32/v2.01/bin/../lib/gcc/pic32mx/4.5.1/../../../../pic32mx/lib\libc.a(rand.o)
 .debug_line    0x00004199       0x87 c:/program files (x86)/microchip/mplabc32/v2.01/bin/../lib/gcc/pic32mx/4.5.1/../../../../pic32mx/lib\libc.a(strcat.o)
 .debug_line    0x00004220       0x88 c:/program files (x86)/microchip/mplabc32/v2.01/bin/../lib/gcc/pic32mx/4.5.1/../../../../pic32mx/lib\libc.a(strncpy.o)
 .debug_line    0x000042a8       0x31 c:/program files (x86)/microchip/mplabc32/v2.01/bin/../lib/gcc/pic32mx/4.5.1/../../../../pic32mx/lib\libc.a(sprintf_cdnopsuxX.eo)
 .debug_line    0x000042d9       0xa4 c:/program files (x86)/microchip/mplabc32/v2.01/bin/../lib/gcc/pic32mx/4.5.1/../../../../pic32mx/lib\libc.a(default-general-exception-handler.o)
 .debug_line    0x0000437d       0xa6 c:/program files (x86)/microchip/mplabc32/v2.01/bin/../lib/gcc/pic32mx/4.5.1/../../../../pic32mx/lib\libc.a(default-bootstrap-exception-handler.o)
 .debug_line    0x00004423       0x93 c:/program files (x86)/microchip/mplabc32/v2.01/bin/../lib/gcc/pic32mx/4.5.1/../../../../pic32mx/lib\libc.a(default-on-reset.o)
 .debug_line    0x000044b6       0x97 c:/program files (x86)/microchip/mplabc32/v2.01/bin/../lib/gcc/pic32mx/4.5.1/../../../../pic32mx/lib\libc.a(default-on-bootstrap.o)
 .debug_line    0x0000454d        0x0 c:/program files (x86)/microchip/mplabc32/v2.01/bin/../lib/gcc/pic32mx/4.5.1/../../../../pic32mx/lib\libc.a(ctype.o)
 .debug_line    0x0000454d       0x30 c:/program files (x86)/microchip/mplabc32/v2.01/bin/../lib/gcc/pic32mx/4.5.1/../../../../pic32mx/lib\libc.a(doprnt_cdnopsuxX.eo)
 .debug_line    0x0000457d       0x2f c:/program files (x86)/microchip/mplabc32/v2.01/bin/../lib/gcc/pic32mx/4.5.1/../../../../pic32mx/lib\libc.a(_fputc_simple.o)
 .debug_line    0x000045ac       0x88 c:/program files (x86)/microchip/mplabc32/v2.01/bin/../lib/gcc/pic32mx/4.5.1/../../../../pic32mx/lib\libc.a(write.o)
 .debug_line    0x00004634        0x0 c:/program files (x86)/microchip/mplabc32/v2.01/bin/../lib/gcc/pic32mx/4.5.1/../../../../pic32mx/lib\libc.a(_iob.o)
 .debug_line    0x00004634       0x30 c:/program files (x86)/microchip/mplabc32/v2.01/bin/../lib/gcc/pic32mx/4.5.1/../../../../pic32mx/lib\libc.a(_flsbuf_simple.o)
 .debug_line    0x00004664       0x8c c:/program files (x86)/microchip/mplabc32/v2.01/bin/../lib/gcc/pic32mx/4.5.1/../../../../pic32mx/lib\libc.a(_mon_putc.o)
 .debug_line    0x000046f0        0x0 c:/program files (x86)/microchip/mplabc32/v2.01/bin/../lib/gcc/pic32mx/4.5.1/../../../../pic32mx/lib\libc.a(c32_uart.o)
 .debug_line    0x000046f0       0x62 c:/program files (x86)/microchip/mplabc32/v2.01/bin/../lib/gcc/pic32mx/4.5.1/../../../../pic32mx/lib\libmchp_peripheral_32MX675F512H.a(pcache.o)
 .debug_line    0x00004752       0x73 c:/program files (x86)/microchip/mplabc32/v2.01/bin/../lib/gcc/pic32mx/4.5.1/../../../../pic32mx/lib\libmchp_peripheral_32MX675F512H.a(int_disable_interrupts_lib.o)
 .debug_line    0x000047c5       0x73 c:/program files (x86)/microchip/mplabc32/v2.01/bin/../lib/gcc/pic32mx/4.5.1/../../../../pic32mx/lib\libmchp_peripheral_32MX675F512H.a(int_restore_interrupts_lib.o)
 .debug_line    0x00004838       0x6e c:/program files (x86)/microchip/mplabc32/v2.01/bin/../lib/gcc/pic32mx/4.5.1/../../../../pic32mx/lib\libmchp_peripheral_32MX675F512H.a(int_enable_mv_int_lib.o)
 .debug_line    0x000048a6       0xda c:/program files (x86)/microchip/mplabc32/v2.01/bin/../lib/gcc/pic32mx/4.5.1/../../../../pic32mx/lib\libmchp_peripheral_32MX675F512H.a(rtcc_open_lib.o)
 .debug_line    0x00004980       0x71 c:/program files (x86)/microchip/mplabc32/v2.01/bin/../lib/gcc/pic32mx/4.5.1/../../../../pic32mx/lib\libmchp_peripheral_32MX675F512H.a(spi_getc_spi2_lib_legacy.o)
 .debug_line    0x000049f1       0x71 c:/program files (x86)/microchip/mplabc32/v2.01/bin/../lib/gcc/pic32mx/4.5.1/../../../../pic32mx/lib\libmchp_peripheral_32MX675F512H.a(spi_open_spi2_lib_legacy.o)
 .debug_line    0x00004a62        0x0 c:/program files (x86)/microchip/mplabc32/v2.01/bin/../lib/gcc/pic32mx/4.5.1/../../../../pic32mx/lib\libmchp_peripheral_32MX675F512H.a(spi_brg_tbl_lib_legacy.o)
 .debug_line    0x00004a62       0x72 c:/program files (x86)/microchip/mplabc32/v2.01/bin/../lib/gcc/pic32mx/4.5.1/../../../../pic32mx/lib\libmchp_peripheral_32MX675F512H.a(int_enable_interrupts_lib.o)
 .debug_line    0x00004ad4       0x64 c:/program files (x86)/microchip/mplabc32/v2.01/bin/../lib/gcc/pic32mx/4.5.1/../../../../pic32mx/lib\libmchp_peripheral_32MX675F512H.a(int_tbl_lib.o)
 .debug_line    0x00004b38       0xbd c:/program files (x86)/microchip/mplabc32/v2.01/bin/../lib/gcc/pic32mx/4.5.1/../../../../pic32mx/lib\libmchp_peripheral_32MX675F512H.a(_rtcc_wait_clock_off_lib.o)
 .debug_line    0x00004bf5       0x6e c:/program files (x86)/microchip/mplabc32/v2.01/bin/../lib/gcc/pic32mx/4.5.1/../../../../pic32mx/lib\libmchp_peripheral_32MX675F512H.a(read_core_timer_lib.o)
 .debug_line    0x00004c63      0x112 c:/program files (x86)/microchip/mplabc32/v2.01/bin/../lib/gcc/pic32mx/4.5.1\libgcc.a(_udivdi3.o)
 .debug_line    0x00004d75      0x128 c:/program files (x86)/microchip/mplabc32/v2.01/bin/../lib/gcc/pic32mx/4.5.1\libgcc.a(_umoddi3.o)

.debug_frame    0x00000000     0x194c
 *(.debug_frame)
 .debug_frame   0x00000000      0x1ec Object - MDD File System-SD Card\SD-SPI.o
 .debug_frame   0x000001ec      0x7c0 Object - MDD File System-SD Card\FSIO.o
 .debug_frame   0x000009ac       0x2c Object - MDD File System-SD Card\Demonstration1.o
 .debug_frame   0x000009d8       0x28 Object - MDD File System-SD Card\buttons.o
 .debug_frame   0x00000a00       0x5c Object - MDD File System-SD Card\sendspi.o
 .debug_frame   0x00000a5c       0xec Object - MDD File System-SD Card\bitbang.o
 .debug_frame   0x00000b48      0x34c Object - MDD File System-SD Card\battle-p.o
 .debug_frame   0x00000e94       0x9c Object - MDD File System-SD Card\eor-p.o
 .debug_frame   0x00000f30       0x64 Object - MDD File System-SD Card\game.o
 .debug_frame   0x00000f94      0x398 Object - MDD File System-SD Card\global.o
 .debug_frame   0x0000132c       0x80 Object - MDD File System-SD Card\input-p.o
 .debug_frame   0x000013ac       0x60 Object - MDD File System-SD Card\win-p.o
 .debug_frame   0x0000140c      0x120 c:/program files (x86)/microchip/mplabc32/v2.01/bin/../lib/gcc/pic32mx/4.5.1/../../../../pic32mx/lib\libc.a(ctypef.o)
 .debug_frame   0x0000152c       0x30 c:/program files (x86)/microchip/mplabc32/v2.01/bin/../lib/gcc/pic32mx/4.5.1/../../../../pic32mx/lib\libc.a(rand.o)
 .debug_frame   0x0000155c       0x20 c:/program files (x86)/microchip/mplabc32/v2.01/bin/../lib/gcc/pic32mx/4.5.1/../../../../pic32mx/lib\libc.a(strcat.o)
 .debug_frame   0x0000157c       0x20 c:/program files (x86)/microchip/mplabc32/v2.01/bin/../lib/gcc/pic32mx/4.5.1/../../../../pic32mx/lib\libc.a(strncpy.o)
 .debug_frame   0x0000159c       0x2c c:/program files (x86)/microchip/mplabc32/v2.01/bin/../lib/gcc/pic32mx/4.5.1/../../../../pic32mx/lib\libc.a(sprintf_cdnopsuxX.eo)
 .debug_frame   0x000015c8       0x20 c:/program files (x86)/microchip/mplabc32/v2.01/bin/../lib/gcc/pic32mx/4.5.1/../../../../pic32mx/lib\libc.a(default-general-exception-handler.o)
 .debug_frame   0x000015e8       0x20 c:/program files (x86)/microchip/mplabc32/v2.01/bin/../lib/gcc/pic32mx/4.5.1/../../../../pic32mx/lib\libc.a(default-bootstrap-exception-handler.o)
 .debug_frame   0x00001608       0x20 c:/program files (x86)/microchip/mplabc32/v2.01/bin/../lib/gcc/pic32mx/4.5.1/../../../../pic32mx/lib\libc.a(default-on-reset.o)
 .debug_frame   0x00001628       0x20 c:/program files (x86)/microchip/mplabc32/v2.01/bin/../lib/gcc/pic32mx/4.5.1/../../../../pic32mx/lib\libc.a(default-on-bootstrap.o)
 .debug_frame   0x00001648       0x38 c:/program files (x86)/microchip/mplabc32/v2.01/bin/../lib/gcc/pic32mx/4.5.1/../../../../pic32mx/lib\libc.a(doprnt_cdnopsuxX.eo)
 .debug_frame   0x00001680       0x2c c:/program files (x86)/microchip/mplabc32/v2.01/bin/../lib/gcc/pic32mx/4.5.1/../../../../pic32mx/lib\libc.a(_fputc_simple.o)
 .debug_frame   0x000016ac       0x28 c:/program files (x86)/microchip/mplabc32/v2.01/bin/../lib/gcc/pic32mx/4.5.1/../../../../pic32mx/lib\libc.a(write.o)
 .debug_frame   0x000016d4       0x28 c:/program files (x86)/microchip/mplabc32/v2.01/bin/../lib/gcc/pic32mx/4.5.1/../../../../pic32mx/lib\libc.a(_flsbuf_simple.o)
 .debug_frame   0x000016fc       0x20 c:/program files (x86)/microchip/mplabc32/v2.01/bin/../lib/gcc/pic32mx/4.5.1/../../../../pic32mx/lib\libc.a(_mon_putc.o)
 .debug_frame   0x0000171c       0x30 c:/program files (x86)/microchip/mplabc32/v2.01/bin/../lib/gcc/pic32mx/4.5.1/../../../../pic32mx/lib\libmchp_peripheral_32MX675F512H.a(pcache.o)
 .debug_frame   0x0000174c       0x20 c:/program files (x86)/microchip/mplabc32/v2.01/bin/../lib/gcc/pic32mx/4.5.1/../../../../pic32mx/lib\libmchp_peripheral_32MX675F512H.a(int_disable_interrupts_lib.o)
 .debug_frame   0x0000176c       0x20 c:/program files (x86)/microchip/mplabc32/v2.01/bin/../lib/gcc/pic32mx/4.5.1/../../../../pic32mx/lib\libmchp_peripheral_32MX675F512H.a(int_restore_interrupts_lib.o)
 .debug_frame   0x0000178c       0x28 c:/program files (x86)/microchip/mplabc32/v2.01/bin/../lib/gcc/pic32mx/4.5.1/../../../../pic32mx/lib\libmchp_peripheral_32MX675F512H.a(int_enable_mv_int_lib.o)
 .debug_frame   0x000017b4       0x34 c:/program files (x86)/microchip/mplabc32/v2.01/bin/../lib/gcc/pic32mx/4.5.1/../../../../pic32mx/lib\libmchp_peripheral_32MX675F512H.a(rtcc_open_lib.o)
 .debug_frame   0x000017e8       0x20 c:/program files (x86)/microchip/mplabc32/v2.01/bin/../lib/gcc/pic32mx/4.5.1/../../../../pic32mx/lib\libmchp_peripheral_32MX675F512H.a(spi_getc_spi2_lib_legacy.o)
 .debug_frame   0x00001808       0x20 c:/program files (x86)/microchip/mplabc32/v2.01/bin/../lib/gcc/pic32mx/4.5.1/../../../../pic32mx/lib\libmchp_peripheral_32MX675F512H.a(spi_open_spi2_lib_legacy.o)
 .debug_frame   0x00001828       0x20 c:/program files (x86)/microchip/mplabc32/v2.01/bin/../lib/gcc/pic32mx/4.5.1/../../../../pic32mx/lib\libmchp_peripheral_32MX675F512H.a(int_enable_interrupts_lib.o)
 .debug_frame   0x00001848       0xa0 c:/program files (x86)/microchip/mplabc32/v2.01/bin/../lib/gcc/pic32mx/4.5.1/../../../../pic32mx/lib\libmchp_peripheral_32MX675F512H.a(int_tbl_lib.o)
 .debug_frame   0x000018e8       0x44 c:/program files (x86)/microchip/mplabc32/v2.01/bin/../lib/gcc/pic32mx/4.5.1/../../../../pic32mx/lib\libmchp_peripheral_32MX675F512H.a(_rtcc_wait_clock_off_lib.o)
 .debug_frame   0x0000192c       0x20 c:/program files (x86)/microchip/mplabc32/v2.01/bin/../lib/gcc/pic32mx/4.5.1/../../../../pic32mx/lib\libmchp_peripheral_32MX675F512H.a(read_core_timer_lib.o)

.debug_str      0x00000000     0x131c
 *(.debug_str)
 .debug_str     0x00000000      0x260 Object - MDD File System-SD Card\SD-SPI.o
 .debug_str     0x00000260      0x646 Object - MDD File System-SD Card\FSIO.o
 .debug_str     0x000008a6      0x17e Object - MDD File System-SD Card\Demonstration1.o
 .debug_str     0x00000a24       0x14 Object - MDD File System-SD Card\buttons.o
 .debug_str     0x00000a38       0x2c Object - MDD File System-SD Card\sendspi.o
 .debug_str     0x00000a64      0x155 Object - MDD File System-SD Card\bitbang.o
 .debug_str     0x00000bb9       0x57 Object - MDD File System-SD Card\battle-p.o
 .debug_str     0x00000c10       0x27 Object - MDD File System-SD Card\eor-p.o
 .debug_str     0x00000c37        0x0 Object - MDD File System-SD Card\game.o
 .debug_str     0x00000c37      0x653 Object - MDD File System-SD Card\global.o
 .debug_str     0x0000128a       0x72 Object - MDD File System-SD Card\input-p.o
 .debug_str     0x000012fc       0x20 Object - MDD File System-SD Card\win-p.o
 .debug_str     0x0000131c        0x0 c:/program files (x86)/microchip/mplabc32/v2.01/bin/../lib/gcc/pic32mx/4.5.1/../../../../pic32mx/lib\libc.a(ctypef.o)
 .debug_str     0x0000131c        0x0 c:/program files (x86)/microchip/mplabc32/v2.01/bin/../lib/gcc/pic32mx/4.5.1/../../../../pic32mx/lib\libc.a(rand.o)
 .debug_str     0x0000131c        0x0 c:/program files (x86)/microchip/mplabc32/v2.01/bin/../lib/gcc/pic32mx/4.5.1/../../../../pic32mx/lib\libc.a(strcat.o)
 .debug_str     0x0000131c        0x0 c:/program files (x86)/microchip/mplabc32/v2.01/bin/../lib/gcc/pic32mx/4.5.1/../../../../pic32mx/lib\libc.a(strncpy.o)
 .debug_str     0x0000131c        0x0 c:/program files (x86)/microchip/mplabc32/v2.01/bin/../lib/gcc/pic32mx/4.5.1/../../../../pic32mx/lib\libc.a(sprintf_cdnopsuxX.eo)
 .debug_str     0x0000131c        0x0 c:/program files (x86)/microchip/mplabc32/v2.01/bin/../lib/gcc/pic32mx/4.5.1/../../../../pic32mx/lib\libc.a(default-general-exception-handler.o)
 .debug_str     0x0000131c        0x0 c:/program files (x86)/microchip/mplabc32/v2.01/bin/../lib/gcc/pic32mx/4.5.1/../../../../pic32mx/lib\libc.a(default-bootstrap-exception-handler.o)
 .debug_str     0x0000131c        0x0 c:/program files (x86)/microchip/mplabc32/v2.01/bin/../lib/gcc/pic32mx/4.5.1/../../../../pic32mx/lib\libc.a(default-on-reset.o)
 .debug_str     0x0000131c        0x0 c:/program files (x86)/microchip/mplabc32/v2.01/bin/../lib/gcc/pic32mx/4.5.1/../../../../pic32mx/lib\libc.a(default-on-bootstrap.o)
 .debug_str     0x0000131c        0x0 c:/program files (x86)/microchip/mplabc32/v2.01/bin/../lib/gcc/pic32mx/4.5.1/../../../../pic32mx/lib\libc.a(ctype.o)
 .debug_str     0x0000131c        0x0 c:/program files (x86)/microchip/mplabc32/v2.01/bin/../lib/gcc/pic32mx/4.5.1/../../../../pic32mx/lib\libc.a(doprnt_cdnopsuxX.eo)
 .debug_str     0x0000131c        0x0 c:/program files (x86)/microchip/mplabc32/v2.01/bin/../lib/gcc/pic32mx/4.5.1/../../../../pic32mx/lib\libc.a(_fputc_simple.o)
 .debug_str     0x0000131c        0x0 c:/program files (x86)/microchip/mplabc32/v2.01/bin/../lib/gcc/pic32mx/4.5.1/../../../../pic32mx/lib\libc.a(write.o)
 .debug_str     0x0000131c        0x0 c:/program files (x86)/microchip/mplabc32/v2.01/bin/../lib/gcc/pic32mx/4.5.1/../../../../pic32mx/lib\libc.a(_iob.o)
 .debug_str     0x0000131c        0x0 c:/program files (x86)/microchip/mplabc32/v2.01/bin/../lib/gcc/pic32mx/4.5.1/../../../../pic32mx/lib\libc.a(_flsbuf_simple.o)
 .debug_str     0x0000131c        0x0 c:/program files (x86)/microchip/mplabc32/v2.01/bin/../lib/gcc/pic32mx/4.5.1/../../../../pic32mx/lib\libc.a(_mon_putc.o)
 .debug_str     0x0000131c        0x0 c:/program files (x86)/microchip/mplabc32/v2.01/bin/../lib/gcc/pic32mx/4.5.1/../../../../pic32mx/lib\libc.a(c32_uart.o)
 .debug_str     0x0000131c        0x0 c:/program files (x86)/microchip/mplabc32/v2.01/bin/../lib/gcc/pic32mx/4.5.1/../../../../pic32mx/lib\libmchp_peripheral_32MX675F512H.a(pcache.o)
 .debug_str     0x0000131c        0x0 c:/program files (x86)/microchip/mplabc32/v2.01/bin/../lib/gcc/pic32mx/4.5.1/../../../../pic32mx/lib\libmchp_peripheral_32MX675F512H.a(int_disable_interrupts_lib.o)
 .debug_str     0x0000131c        0x0 c:/program files (x86)/microchip/mplabc32/v2.01/bin/../lib/gcc/pic32mx/4.5.1/../../../../pic32mx/lib\libmchp_peripheral_32MX675F512H.a(int_restore_interrupts_lib.o)
 .debug_str     0x0000131c        0x0 c:/program files (x86)/microchip/mplabc32/v2.01/bin/../lib/gcc/pic32mx/4.5.1/../../../../pic32mx/lib\libmchp_peripheral_32MX675F512H.a(int_enable_mv_int_lib.o)
 .debug_str     0x0000131c        0x0 c:/program files (x86)/microchip/mplabc32/v2.01/bin/../lib/gcc/pic32mx/4.5.1/../../../../pic32mx/lib\libmchp_peripheral_32MX675F512H.a(rtcc_open_lib.o)
 .debug_str     0x0000131c        0x0 c:/program files (x86)/microchip/mplabc32/v2.01/bin/../lib/gcc/pic32mx/4.5.1/../../../../pic32mx/lib\libmchp_peripheral_32MX675F512H.a(spi_getc_spi2_lib_legacy.o)
 .debug_str     0x0000131c        0x0 c:/program files (x86)/microchip/mplabc32/v2.01/bin/../lib/gcc/pic32mx/4.5.1/../../../../pic32mx/lib\libmchp_peripheral_32MX675F512H.a(spi_open_spi2_lib_legacy.o)
 .debug_str     0x0000131c        0x0 c:/program files (x86)/microchip/mplabc32/v2.01/bin/../lib/gcc/pic32mx/4.5.1/../../../../pic32mx/lib\libmchp_peripheral_32MX675F512H.a(spi_brg_tbl_lib_legacy.o)
 .debug_str     0x0000131c        0x0 c:/program files (x86)/microchip/mplabc32/v2.01/bin/../lib/gcc/pic32mx/4.5.1/../../../../pic32mx/lib\libmchp_peripheral_32MX675F512H.a(int_enable_interrupts_lib.o)
 .debug_str     0x0000131c        0x0 c:/program files (x86)/microchip/mplabc32/v2.01/bin/../lib/gcc/pic32mx/4.5.1/../../../../pic32mx/lib\libmchp_peripheral_32MX675F512H.a(int_tbl_lib.o)
 .debug_str     0x0000131c        0x0 c:/program files (x86)/microchip/mplabc32/v2.01/bin/../lib/gcc/pic32mx/4.5.1/../../../../pic32mx/lib\libmchp_peripheral_32MX675F512H.a(_rtcc_wait_clock_off_lib.o)
 .debug_str     0x0000131c        0x0 c:/program files (x86)/microchip/mplabc32/v2.01/bin/../lib/gcc/pic32mx/4.5.1/../../../../pic32mx/lib\libmchp_peripheral_32MX675F512H.a(read_core_timer_lib.o)
 .debug_str     0x0000131c        0x0 c:/program files (x86)/microchip/mplabc32/v2.01/bin/../lib/gcc/pic32mx/4.5.1\libgcc.a(_udivdi3.o)
 .debug_str     0x0000131c        0x0 c:/program files (x86)/microchip/mplabc32/v2.01/bin/../lib/gcc/pic32mx/4.5.1\libgcc.a(_umoddi3.o)

.debug_loc      0x00000000     0x1464
 *(.debug_loc)
 .debug_loc     0x00000000      0xa47 c:/program files (x86)/microchip/mplabc32/v2.01/bin/../lib/gcc/pic32mx/4.5.1\libgcc.a(_udivdi3.o)
 .debug_loc     0x00000a47      0xa1d c:/program files (x86)/microchip/mplabc32/v2.01/bin/../lib/gcc/pic32mx/4.5.1\libgcc.a(_umoddi3.o)

.debug_macinfo
 *(.debug_macinfo)

.debug_weaknames
 *(.debug_weaknames)

.debug_funcnames
 *(.debug_funcnames)

.debug_typenames
 *(.debug_typenames)

.debug_varnames
 *(.debug_varnames)

.debug_pubtypes
                0x00000000      0xf09
 *(.debug_pubtypes)
 .debug_pubtypes
                0x00000000      0x1fc Object - MDD File System-SD Card\SD-SPI.o
 .debug_pubtypes
                0x000001fc      0x261 Object - MDD File System-SD Card\FSIO.o
 .debug_pubtypes
                0x0000045d      0x16a Object - MDD File System-SD Card\Demonstration1.o
 .debug_pubtypes
                0x000005c7       0x36 Object - MDD File System-SD Card\buttons.o
 .debug_pubtypes
                0x000005fd       0x3b Object - MDD File System-SD Card\sendspi.o
 .debug_pubtypes
                0x00000638      0x15c Object - MDD File System-SD Card\bitbang.o
 .debug_pubtypes
                0x00000794      0x119 Object - MDD File System-SD Card\battle-p.o
 .debug_pubtypes
                0x000008ad      0x119 Object - MDD File System-SD Card\eor-p.o
 .debug_pubtypes
                0x000009c6      0x123 Object - MDD File System-SD Card\game.o
 .debug_pubtypes
                0x00000ae9      0x126 Object - MDD File System-SD Card\global.o
 .debug_pubtypes
                0x00000c0f      0x125 Object - MDD File System-SD Card\input-p.o
 .debug_pubtypes
                0x00000d34      0x123 Object - MDD File System-SD Card\win-p.o
 .debug_pubtypes
                0x00000e57       0x59 c:/program files (x86)/microchip/mplabc32/v2.01/bin/../lib/gcc/pic32mx/4.5.1\libgcc.a(_udivdi3.o)
 .debug_pubtypes
                0x00000eb0       0x59 c:/program files (x86)/microchip/mplabc32/v2.01/bin/../lib/gcc/pic32mx/4.5.1\libgcc.a(_umoddi3.o)

.debug_ranges   0x00000000      0x4f8
 *(.debug_ranges)
 .debug_ranges  0x00000000       0x90 Object - MDD File System-SD Card\Demonstration1.o
 .debug_ranges  0x00000090       0x18 Object - MDD File System-SD Card\buttons.o
 .debug_ranges  0x000000a8       0x18 Object - MDD File System-SD Card\battle-p.o
 .debug_ranges  0x000000c0       0x18 Object - MDD File System-SD Card\input-p.o
 .debug_ranges  0x000000d8       0x90 c:/program files (x86)/microchip/mplabc32/v2.01/bin/../lib/gcc/pic32mx/4.5.1/../../../../pic32mx/lib\libc.a(ctypef.o)
 .debug_ranges  0x00000168       0x18 c:/program files (x86)/microchip/mplabc32/v2.01/bin/../lib/gcc/pic32mx/4.5.1/../../../../pic32mx/lib\libc.a(rand.o)
 .debug_ranges  0x00000180       0x10 c:/program files (x86)/microchip/mplabc32/v2.01/bin/../lib/gcc/pic32mx/4.5.1/../../../../pic32mx/lib\libc.a(strcat.o)
 .debug_ranges  0x00000190       0x10 c:/program files (x86)/microchip/mplabc32/v2.01/bin/../lib/gcc/pic32mx/4.5.1/../../../../pic32mx/lib\libc.a(strncpy.o)
 .debug_ranges  0x000001a0       0x10 c:/program files (x86)/microchip/mplabc32/v2.01/bin/../lib/gcc/pic32mx/4.5.1/../../../../pic32mx/lib\libc.a(sprintf_cdnopsuxX.eo)
 .debug_ranges  0x000001b0       0x10 c:/program files (x86)/microchip/mplabc32/v2.01/bin/../lib/gcc/pic32mx/4.5.1/../../../../pic32mx/lib\libc.a(default-general-exception-handler.o)
 .debug_ranges  0x000001c0       0x10 c:/program files (x86)/microchip/mplabc32/v2.01/bin/../lib/gcc/pic32mx/4.5.1/../../../../pic32mx/lib\libc.a(default-bootstrap-exception-handler.o)
 .debug_ranges  0x000001d0       0x10 c:/program files (x86)/microchip/mplabc32/v2.01/bin/../lib/gcc/pic32mx/4.5.1/../../../../pic32mx/lib\libc.a(default-on-reset.o)
 .debug_ranges  0x000001e0       0x10 c:/program files (x86)/microchip/mplabc32/v2.01/bin/../lib/gcc/pic32mx/4.5.1/../../../../pic32mx/lib\libc.a(default-on-bootstrap.o)
 .debug_ranges  0x000001f0       0x10 c:/program files (x86)/microchip/mplabc32/v2.01/bin/../lib/gcc/pic32mx/4.5.1/../../../../pic32mx/lib\libc.a(doprnt_cdnopsuxX.eo)
 .debug_ranges  0x00000200       0x10 c:/program files (x86)/microchip/mplabc32/v2.01/bin/../lib/gcc/pic32mx/4.5.1/../../../../pic32mx/lib\libc.a(_fputc_simple.o)
 .debug_ranges  0x00000210       0x10 c:/program files (x86)/microchip/mplabc32/v2.01/bin/../lib/gcc/pic32mx/4.5.1/../../../../pic32mx/lib\libc.a(write.o)
 .debug_ranges  0x00000220       0x10 c:/program files (x86)/microchip/mplabc32/v2.01/bin/../lib/gcc/pic32mx/4.5.1/../../../../pic32mx/lib\libc.a(_flsbuf_simple.o)
 .debug_ranges  0x00000230       0x10 c:/program files (x86)/microchip/mplabc32/v2.01/bin/../lib/gcc/pic32mx/4.5.1/../../../../pic32mx/lib\libc.a(_mon_putc.o)
 .debug_ranges  0x00000240       0x18 c:/program files (x86)/microchip/mplabc32/v2.01/bin/../lib/gcc/pic32mx/4.5.1/../../../../pic32mx/lib\libmchp_peripheral_32MX675F512H.a(pcache.o)
 .debug_ranges  0x00000258       0x10 c:/program files (x86)/microchip/mplabc32/v2.01/bin/../lib/gcc/pic32mx/4.5.1/../../../../pic32mx/lib\libmchp_peripheral_32MX675F512H.a(int_disable_interrupts_lib.o)
 .debug_ranges  0x00000268       0x10 c:/program files (x86)/microchip/mplabc32/v2.01/bin/../lib/gcc/pic32mx/4.5.1/../../../../pic32mx/lib\libmchp_peripheral_32MX675F512H.a(int_restore_interrupts_lib.o)
 .debug_ranges  0x00000278       0x10 c:/program files (x86)/microchip/mplabc32/v2.01/bin/../lib/gcc/pic32mx/4.5.1/../../../../pic32mx/lib\libmchp_peripheral_32MX675F512H.a(int_enable_mv_int_lib.o)
 .debug_ranges  0x00000288       0x10 c:/program files (x86)/microchip/mplabc32/v2.01/bin/../lib/gcc/pic32mx/4.5.1/../../../../pic32mx/lib\libmchp_peripheral_32MX675F512H.a(rtcc_open_lib.o)
 .debug_ranges  0x00000298       0x10 c:/program files (x86)/microchip/mplabc32/v2.01/bin/../lib/gcc/pic32mx/4.5.1/../../../../pic32mx/lib\libmchp_peripheral_32MX675F512H.a(spi_getc_spi2_lib_legacy.o)
 .debug_ranges  0x000002a8       0x10 c:/program files (x86)/microchip/mplabc32/v2.01/bin/../lib/gcc/pic32mx/4.5.1/../../../../pic32mx/lib\libmchp_peripheral_32MX675F512H.a(spi_open_spi2_lib_legacy.o)
 .debug_ranges  0x000002b8       0x10 c:/program files (x86)/microchip/mplabc32/v2.01/bin/../lib/gcc/pic32mx/4.5.1/../../../../pic32mx/lib\libmchp_peripheral_32MX675F512H.a(int_enable_interrupts_lib.o)
 .debug_ranges  0x000002c8       0x50 c:/program files (x86)/microchip/mplabc32/v2.01/bin/../lib/gcc/pic32mx/4.5.1/../../../../pic32mx/lib\libmchp_peripheral_32MX675F512H.a(int_tbl_lib.o)
 .debug_ranges  0x00000318       0x18 c:/program files (x86)/microchip/mplabc32/v2.01/bin/../lib/gcc/pic32mx/4.5.1/../../../../pic32mx/lib\libmchp_peripheral_32MX675F512H.a(_rtcc_wait_clock_off_lib.o)
 .debug_ranges  0x00000330       0x10 c:/program files (x86)/microchip/mplabc32/v2.01/bin/../lib/gcc/pic32mx/4.5.1/../../../../pic32mx/lib\libmchp_peripheral_32MX675F512H.a(read_core_timer_lib.o)
 .debug_ranges  0x00000340       0xc0 c:/program files (x86)/microchip/mplabc32/v2.01/bin/../lib/gcc/pic32mx/4.5.1\libgcc.a(_udivdi3.o)
 .debug_ranges  0x00000400       0xf8 c:/program files (x86)/microchip/mplabc32/v2.01/bin/../lib/gcc/pic32mx/4.5.1\libgcc.a(_umoddi3.o)

.gnu.attributes
                0x00000000       0x10
 *(.gnu.attributes)
 .gnu.attributes
                0x00000000       0x10 Object - MDD File System-SD Card\SD-SPI.o
 .gnu.attributes
                0x00000010       0x10 Object - MDD File System-SD Card\FSIO.o
 .gnu.attributes
                0x00000020       0x10 Object - MDD File System-SD Card\Demonstration1.o
 .gnu.attributes
                0x00000030       0x10 Object - MDD File System-SD Card\buttons.o
 .gnu.attributes
                0x00000040       0x10 Object - MDD File System-SD Card\sendspi.o
 .gnu.attributes
                0x00000050       0x10 Object - MDD File System-SD Card\bitbang.o
 .gnu.attributes
                0x00000060       0x10 Object - MDD File System-SD Card\battle-p.o
 .gnu.attributes
                0x00000070       0x10 Object - MDD File System-SD Card\eor-p.o
 .gnu.attributes
                0x00000080       0x10 Object - MDD File System-SD Card\game.o
 .gnu.attributes
                0x00000090       0x10 Object - MDD File System-SD Card\global.o
 .gnu.attributes
                0x000000a0       0x10 Object - MDD File System-SD Card\input-p.o
 .gnu.attributes
                0x000000b0       0x10 Object - MDD File System-SD Card\win-p.o
 .gnu.attributes
                0x000000c0       0x10 c:/program files (x86)/microchip/mplabc32/v2.01/bin/../lib/gcc/pic32mx/4.5.1/../../../../pic32mx/lib\libc.a(ctypef.o)
 .gnu.attributes
                0x000000d0       0x10 c:/program files (x86)/microchip/mplabc32/v2.01/bin/../lib/gcc/pic32mx/4.5.1/../../../../pic32mx/lib\libc.a(rand.o)
 .gnu.attributes
                0x000000e0       0x10 c:/program files (x86)/microchip/mplabc32/v2.01/bin/../lib/gcc/pic32mx/4.5.1/../../../../pic32mx/lib\libc.a(strcat.o)
 .gnu.attributes
                0x000000f0       0x10 c:/program files (x86)/microchip/mplabc32/v2.01/bin/../lib/gcc/pic32mx/4.5.1/../../../../pic32mx/lib\libc.a(strncpy.o)
 .gnu.attributes
                0x00000100       0x10 c:/program files (x86)/microchip/mplabc32/v2.01/bin/../lib/gcc/pic32mx/4.5.1/../../../../pic32mx/lib\libc.a(sprintf_cdnopsuxX.eo)
 .gnu.attributes
                0x00000110       0x10 c:/program files (x86)/microchip/mplabc32/v2.01/bin/../lib/gcc/pic32mx/4.5.1/../../../../pic32mx/lib\libc.a(default-general-exception-handler.o)
 .gnu.attributes
                0x00000120       0x10 c:/program files (x86)/microchip/mplabc32/v2.01/bin/../lib/gcc/pic32mx/4.5.1/../../../../pic32mx/lib\libc.a(default-bootstrap-exception-handler.o)
 .gnu.attributes
                0x00000130       0x10 c:/program files (x86)/microchip/mplabc32/v2.01/bin/../lib/gcc/pic32mx/4.5.1/../../../../pic32mx/lib\libc.a(default-on-reset.o)
 .gnu.attributes
                0x00000140       0x10 c:/program files (x86)/microchip/mplabc32/v2.01/bin/../lib/gcc/pic32mx/4.5.1/../../../../pic32mx/lib\libc.a(default-on-bootstrap.o)
 .gnu.attributes
                0x00000150       0x10 c:/program files (x86)/microchip/mplabc32/v2.01/bin/../lib/gcc/pic32mx/4.5.1/../../../../pic32mx/lib\libc.a(ctype.o)
 .gnu.attributes
                0x00000160       0x10 c:/program files (x86)/microchip/mplabc32/v2.01/bin/../lib/gcc/pic32mx/4.5.1/../../../../pic32mx/lib\libc.a(doprnt_cdnopsuxX.eo)
 .gnu.attributes
                0x00000170       0x10 c:/program files (x86)/microchip/mplabc32/v2.01/bin/../lib/gcc/pic32mx/4.5.1/../../../../pic32mx/lib\libc.a(_fputc_simple.o)
 .gnu.attributes
                0x00000180       0x10 c:/program files (x86)/microchip/mplabc32/v2.01/bin/../lib/gcc/pic32mx/4.5.1/../../../../pic32mx/lib\libc.a(write.o)
 .gnu.attributes
                0x00000190       0x10 c:/program files (x86)/microchip/mplabc32/v2.01/bin/../lib/gcc/pic32mx/4.5.1/../../../../pic32mx/lib\libc.a(_iob.o)
 .gnu.attributes
                0x000001a0       0x10 c:/program files (x86)/microchip/mplabc32/v2.01/bin/../lib/gcc/pic32mx/4.5.1/../../../../pic32mx/lib\libc.a(_flsbuf_simple.o)
 .gnu.attributes
                0x000001b0       0x10 c:/program files (x86)/microchip/mplabc32/v2.01/bin/../lib/gcc/pic32mx/4.5.1/../../../../pic32mx/lib\libc.a(_mon_putc.o)
 .gnu.attributes
                0x000001c0       0x10 c:/program files (x86)/microchip/mplabc32/v2.01/bin/../lib/gcc/pic32mx/4.5.1/../../../../pic32mx/lib\libc.a(c32_uart.o)
 .gnu.attributes
                0x000001d0       0x10 c:/program files (x86)/microchip/mplabc32/v2.01/bin/../lib/gcc/pic32mx/4.5.1/../../../../pic32mx/lib\libmchp_peripheral_32MX675F512H.a(pcache.o)
 .gnu.attributes
                0x000001e0       0x10 c:/program files (x86)/microchip/mplabc32/v2.01/bin/../lib/gcc/pic32mx/4.5.1/../../../../pic32mx/lib\libmchp_peripheral_32MX675F512H.a(int_disable_interrupts_lib.o)
 .gnu.attributes
                0x000001f0       0x10 c:/program files (x86)/microchip/mplabc32/v2.01/bin/../lib/gcc/pic32mx/4.5.1/../../../../pic32mx/lib\libmchp_peripheral_32MX675F512H.a(int_restore_interrupts_lib.o)
 .gnu.attributes
                0x00000200       0x10 c:/program files (x86)/microchip/mplabc32/v2.01/bin/../lib/gcc/pic32mx/4.5.1/../../../../pic32mx/lib\libmchp_peripheral_32MX675F512H.a(int_enable_mv_int_lib.o)
 .gnu.attributes
                0x00000210       0x10 c:/program files (x86)/microchip/mplabc32/v2.01/bin/../lib/gcc/pic32mx/4.5.1/../../../../pic32mx/lib\libmchp_peripheral_32MX675F512H.a(rtcc_open_lib.o)
 .gnu.attributes
                0x00000220       0x10 c:/program files (x86)/microchip/mplabc32/v2.01/bin/../lib/gcc/pic32mx/4.5.1/../../../../pic32mx/lib\libmchp_peripheral_32MX675F512H.a(spi_getc_spi2_lib_legacy.o)
 .gnu.attributes
                0x00000230       0x10 c:/program files (x86)/microchip/mplabc32/v2.01/bin/../lib/gcc/pic32mx/4.5.1/../../../../pic32mx/lib\libmchp_peripheral_32MX675F512H.a(spi_open_spi2_lib_legacy.o)
 .gnu.attributes
                0x00000240       0x10 c:/program files (x86)/microchip/mplabc32/v2.01/bin/../lib/gcc/pic32mx/4.5.1/../../../../pic32mx/lib\libmchp_peripheral_32MX675F512H.a(spi_brg_tbl_lib_legacy.o)
 .gnu.attributes
                0x00000250       0x10 c:/program files (x86)/microchip/mplabc32/v2.01/bin/../lib/gcc/pic32mx/4.5.1/../../../../pic32mx/lib\libmchp_peripheral_32MX675F512H.a(int_enable_interrupts_lib.o)
 .gnu.attributes
                0x00000260       0x10 c:/program files (x86)/microchip/mplabc32/v2.01/bin/../lib/gcc/pic32mx/4.5.1/../../../../pic32mx/lib\libmchp_peripheral_32MX675F512H.a(int_tbl_lib.o)
 .gnu.attributes
                0x00000270       0x10 c:/program files (x86)/microchip/mplabc32/v2.01/bin/../lib/gcc/pic32mx/4.5.1/../../../../pic32mx/lib\libmchp_peripheral_32MX675F512H.a(_rtcc_wait_clock_off_lib.o)
 .gnu.attributes
                0x00000280       0x10 c:/program files (x86)/microchip/mplabc32/v2.01/bin/../lib/gcc/pic32mx/4.5.1/../../../../pic32mx/lib\libmchp_peripheral_32MX675F512H.a(read_core_timer_lib.o)
 .gnu.attributes
                0x00000290       0x10 c:/program files (x86)/microchip/mplabc32/v2.01/bin/../lib/gcc/pic32mx/4.5.1\libgcc.a(_udivdi3.o)
 .gnu.attributes
                0x000002a0       0x10 c:/program files (x86)/microchip/mplabc32/v2.01/bin/../lib/gcc/pic32mx/4.5.1\libgcc.a(_umoddi3.o)
OUTPUT(Project.elf elf32-tradlittlemips)
LOAD stack
LOAD data_init

.stack          0xa0006260      0x400
 .stack         0xa0006260      0x400 stack

.data           0xa0006118       0xa0
 .data          0xa0006118       0xa0 c:/program files (x86)/microchip/mplabc32/v2.01/bin/../lib/gcc/pic32mx/4.5.1/../../../../pic32mx/lib\libc.a(_iob.o)
                0xa0006118                _iob

.bss            0xa00061b8       0x68
 .bss           0xa00061b8       0x40 c:/program files (x86)/microchip/mplabc32/v2.01/bin/../lib/gcc/pic32mx/4.5.1/../../../../pic32mx/lib\libc.a(_iob.o)
                0xa00061b8                _sibuf
                0xa00061d8                _sobuf
 .bss           0xa00061f8       0x28 Object - MDD File System-SD Card\SD-SPI.o

.data           0xa0006220       0x18
 .data          0xa0006220       0x18 Object - MDD File System-SD Card\Demonstration1.o
                0xa0006220                sendBuffer

.bss            0xa0006238        0x8
 .bss           0xa0006238        0x8 c:/program files (x86)/microchip/mplabc32/v2.01/bin/../lib/gcc/pic32mx/4.5.1/../../../../pic32mx/lib\libc.a(rand.o)

.bss%z1         0x00000000        0x0
 .bss           0x00000000        0x0 c:/program files (x86)/microchip/mplabc32/v2.01/bin/../lib/gcc/pic32mx/4.5.1/../../../../pic32mx/lib/./proc/32MX675F512H\processor.o

.data%z2        0x00000000        0x0
 .data          0x00000000        0x0 c:/program files (x86)/microchip/mplabc32/v2.01/bin/../lib/gcc/pic32mx/4.5.1/../../../../pic32mx/lib/./proc/32MX675F512H\processor.o

.mdebug.abi32%z3
                0x00000000        0x0
 .mdebug.abi32  0x00000000        0x0 c:/program files (x86)/microchip/mplabc32/v2.01/bin/../lib/gcc/pic32mx/4.5.1\libgcc.a(_umoddi3.o)

.bss%z4         0x00000000        0x0
 .bss           0x00000000        0x0 c:/program files (x86)/microchip/mplabc32/v2.01/bin/../lib/gcc/pic32mx/4.5.1\libgcc.a(_umoddi3.o)

.data%z5        0x00000000        0x0
 .data          0x00000000        0x0 c:/program files (x86)/microchip/mplabc32/v2.01/bin/../lib/gcc/pic32mx/4.5.1\libgcc.a(_umoddi3.o)

.mdebug.abi32%z6
                0x00000000        0x0
 .mdebug.abi32  0x00000000        0x0 c:/program files (x86)/microchip/mplabc32/v2.01/bin/../lib/gcc/pic32mx/4.5.1\libgcc.a(_udivdi3.o)

.bss%z7         0x00000000        0x0
 .bss           0x00000000        0x0 c:/program files (x86)/microchip/mplabc32/v2.01/bin/../lib/gcc/pic32mx/4.5.1\libgcc.a(_udivdi3.o)

.data%z8        0x00000000        0x0
 .data          0x00000000        0x0 c:/program files (x86)/microchip/mplabc32/v2.01/bin/../lib/gcc/pic32mx/4.5.1\libgcc.a(_udivdi3.o)

.mdebug.abi32%z9
                0x00000000        0x0
 .mdebug.abi32  0x00000000        0x0 c:/program files (x86)/microchip/mplabc32/v2.01/bin/../lib/gcc/pic32mx/4.5.1/../../../../pic32mx/lib\libmchp_peripheral_32MX675F512H.a(read_core_timer_lib.o)

.bss%z10        0x00000000        0x0
 .bss           0x00000000        0x0 c:/program files (x86)/microchip/mplabc32/v2.01/bin/../lib/gcc/pic32mx/4.5.1/../../../../pic32mx/lib\libmchp_peripheral_32MX675F512H.a(read_core_timer_lib.o)

.data%z11       0x00000000        0x0
 .data          0x00000000        0x0 c:/program files (x86)/microchip/mplabc32/v2.01/bin/../lib/gcc/pic32mx/4.5.1/../../../../pic32mx/lib\libmchp_peripheral_32MX675F512H.a(read_core_timer_lib.o)

.mdebug.abi32%z12
                0x00000000        0x0
 .mdebug.abi32  0x00000000        0x0 c:/program files (x86)/microchip/mplabc32/v2.01/bin/../lib/gcc/pic32mx/4.5.1/../../../../pic32mx/lib\libmchp_peripheral_32MX675F512H.a(_rtcc_wait_clock_off_lib.o)

.bss%z13        0x00000000        0x0
 .bss           0x00000000        0x0 c:/program files (x86)/microchip/mplabc32/v2.01/bin/../lib/gcc/pic32mx/4.5.1/../../../../pic32mx/lib\libmchp_peripheral_32MX675F512H.a(_rtcc_wait_clock_off_lib.o)

.data%z14       0x00000000        0x0
 .data          0x00000000        0x0 c:/program files (x86)/microchip/mplabc32/v2.01/bin/../lib/gcc/pic32mx/4.5.1/../../../../pic32mx/lib\libmchp_peripheral_32MX675F512H.a(_rtcc_wait_clock_off_lib.o)

.mdebug.abi32%z15
                0x00000000        0x0
 .mdebug.abi32  0x00000000        0x0 c:/program files (x86)/microchip/mplabc32/v2.01/bin/../lib/gcc/pic32mx/4.5.1/../../../../pic32mx/lib\libmchp_peripheral_32MX675F512H.a(int_tbl_lib.o)

.bss%z16        0x00000000        0x0
 .bss           0x00000000        0x0 c:/program files (x86)/microchip/mplabc32/v2.01/bin/../lib/gcc/pic32mx/4.5.1/../../../../pic32mx/lib\libmchp_peripheral_32MX675F512H.a(int_tbl_lib.o)

.data%z17       0x00000000        0x0
 .data          0x00000000        0x0 c:/program files (x86)/microchip/mplabc32/v2.01/bin/../lib/gcc/pic32mx/4.5.1/../../../../pic32mx/lib\libmchp_peripheral_32MX675F512H.a(int_tbl_lib.o)

.mdebug.abi32%z18
                0x00000000        0x0
 .mdebug.abi32  0x00000000        0x0 c:/program files (x86)/microchip/mplabc32/v2.01/bin/../lib/gcc/pic32mx/4.5.1/../../../../pic32mx/lib\libmchp_peripheral_32MX675F512H.a(int_enable_interrupts_lib.o)

.bss%z19        0x00000000        0x0
 .bss           0x00000000        0x0 c:/program files (x86)/microchip/mplabc32/v2.01/bin/../lib/gcc/pic32mx/4.5.1/../../../../pic32mx/lib\libmchp_peripheral_32MX675F512H.a(int_enable_interrupts_lib.o)

.data%z20       0x00000000        0x0
 .data          0x00000000        0x0 c:/program files (x86)/microchip/mplabc32/v2.01/bin/../lib/gcc/pic32mx/4.5.1/../../../../pic32mx/lib\libmchp_peripheral_32MX675F512H.a(int_enable_interrupts_lib.o)

.mdebug.abi32%z21
                0x00000000        0x0
 .mdebug.abi32  0x00000000        0x0 c:/program files (x86)/microchip/mplabc32/v2.01/bin/../lib/gcc/pic32mx/4.5.1/../../../../pic32mx/lib\libmchp_peripheral_32MX675F512H.a(spi_brg_tbl_lib_legacy.o)

.bss%z22        0x00000000        0x0
 .bss           0x00000000        0x0 c:/program files (x86)/microchip/mplabc32/v2.01/bin/../lib/gcc/pic32mx/4.5.1/../../../../pic32mx/lib\libmchp_peripheral_32MX675F512H.a(spi_brg_tbl_lib_legacy.o)

.data%z23       0x00000000        0x0
 .data          0x00000000        0x0 c:/program files (x86)/microchip/mplabc32/v2.01/bin/../lib/gcc/pic32mx/4.5.1/../../../../pic32mx/lib\libmchp_peripheral_32MX675F512H.a(spi_brg_tbl_lib_legacy.o)

.mdebug.abi32%z24
                0x00000000        0x0
 .mdebug.abi32  0x00000000        0x0 c:/program files (x86)/microchip/mplabc32/v2.01/bin/../lib/gcc/pic32mx/4.5.1/../../../../pic32mx/lib\libmchp_peripheral_32MX675F512H.a(spi_open_spi2_lib_legacy.o)

.bss%z25        0x00000000        0x0
 .bss           0x00000000        0x0 c:/program files (x86)/microchip/mplabc32/v2.01/bin/../lib/gcc/pic32mx/4.5.1/../../../../pic32mx/lib\libmchp_peripheral_32MX675F512H.a(spi_open_spi2_lib_legacy.o)

.data%z26       0x00000000        0x0
 .data          0x00000000        0x0 c:/program files (x86)/microchip/mplabc32/v2.01/bin/../lib/gcc/pic32mx/4.5.1/../../../../pic32mx/lib\libmchp_peripheral_32MX675F512H.a(spi_open_spi2_lib_legacy.o)

.mdebug.abi32%z27
                0x00000000        0x0
 .mdebug.abi32  0x00000000        0x0 c:/program files (x86)/microchip/mplabc32/v2.01/bin/../lib/gcc/pic32mx/4.5.1/../../../../pic32mx/lib\libmchp_peripheral_32MX675F512H.a(spi_getc_spi2_lib_legacy.o)

.bss%z28        0x00000000        0x0
 .bss           0x00000000        0x0 c:/program files (x86)/microchip/mplabc32/v2.01/bin/../lib/gcc/pic32mx/4.5.1/../../../../pic32mx/lib\libmchp_peripheral_32MX675F512H.a(spi_getc_spi2_lib_legacy.o)

.data%z29       0x00000000        0x0
 .data          0x00000000        0x0 c:/program files (x86)/microchip/mplabc32/v2.01/bin/../lib/gcc/pic32mx/4.5.1/../../../../pic32mx/lib\libmchp_peripheral_32MX675F512H.a(spi_getc_spi2_lib_legacy.o)

.mdebug.abi32%z30
                0x00000000        0x0
 .mdebug.abi32  0x00000000        0x0 c:/program files (x86)/microchip/mplabc32/v2.01/bin/../lib/gcc/pic32mx/4.5.1/../../../../pic32mx/lib\libmchp_peripheral_32MX675F512H.a(rtcc_open_lib.o)

.bss%z31        0x00000000        0x0
 .bss           0x00000000        0x0 c:/program files (x86)/microchip/mplabc32/v2.01/bin/../lib/gcc/pic32mx/4.5.1/../../../../pic32mx/lib\libmchp_peripheral_32MX675F512H.a(rtcc_open_lib.o)

.data%z32       0x00000000        0x0
 .data          0x00000000        0x0 c:/program files (x86)/microchip/mplabc32/v2.01/bin/../lib/gcc/pic32mx/4.5.1/../../../../pic32mx/lib\libmchp_peripheral_32MX675F512H.a(rtcc_open_lib.o)

.mdebug.abi32%z33
                0x00000000        0x0
 .mdebug.abi32  0x00000000        0x0 c:/program files (x86)/microchip/mplabc32/v2.01/bin/../lib/gcc/pic32mx/4.5.1/../../../../pic32mx/lib\libmchp_peripheral_32MX675F512H.a(int_enable_mv_int_lib.o)

.bss%z34        0x00000000        0x0
 .bss           0x00000000        0x0 c:/program files (x86)/microchip/mplabc32/v2.01/bin/../lib/gcc/pic32mx/4.5.1/../../../../pic32mx/lib\libmchp_peripheral_32MX675F512H.a(int_enable_mv_int_lib.o)

.data%z35       0x00000000        0x0
 .data          0x00000000        0x0 c:/program files (x86)/microchip/mplabc32/v2.01/bin/../lib/gcc/pic32mx/4.5.1/../../../../pic32mx/lib\libmchp_peripheral_32MX675F512H.a(int_enable_mv_int_lib.o)

.mdebug.abi32%z36
                0x00000000        0x0
 .mdebug.abi32  0x00000000        0x0 c:/program files (x86)/microchip/mplabc32/v2.01/bin/../lib/gcc/pic32mx/4.5.1/../../../../pic32mx/lib\libmchp_peripheral_32MX675F512H.a(int_restore_interrupts_lib.o)

.bss%z37        0x00000000        0x0
 .bss           0x00000000        0x0 c:/program files (x86)/microchip/mplabc32/v2.01/bin/../lib/gcc/pic32mx/4.5.1/../../../../pic32mx/lib\libmchp_peripheral_32MX675F512H.a(int_restore_interrupts_lib.o)

.data%z38       0x00000000        0x0
 .data          0x00000000        0x0 c:/program files (x86)/microchip/mplabc32/v2.01/bin/../lib/gcc/pic32mx/4.5.1/../../../../pic32mx/lib\libmchp_peripheral_32MX675F512H.a(int_restore_interrupts_lib.o)

.mdebug.abi32%z39
                0x00000000        0x0
 .mdebug.abi32  0x00000000        0x0 c:/program files (x86)/microchip/mplabc32/v2.01/bin/../lib/gcc/pic32mx/4.5.1/../../../../pic32mx/lib\libmchp_peripheral_32MX675F512H.a(int_disable_interrupts_lib.o)

.bss%z40        0x00000000        0x0
 .bss           0x00000000        0x0 c:/program files (x86)/microchip/mplabc32/v2.01/bin/../lib/gcc/pic32mx/4.5.1/../../../../pic32mx/lib\libmchp_peripheral_32MX675F512H.a(int_disable_interrupts_lib.o)

.data%z41       0x00000000        0x0
 .data          0x00000000        0x0 c:/program files (x86)/microchip/mplabc32/v2.01/bin/../lib/gcc/pic32mx/4.5.1/../../../../pic32mx/lib\libmchp_peripheral_32MX675F512H.a(int_disable_interrupts_lib.o)

.mdebug.abi32%z42
                0x00000000        0x0
 .mdebug.abi32  0x00000000        0x0 c:/program files (x86)/microchip/mplabc32/v2.01/bin/../lib/gcc/pic32mx/4.5.1/../../../../pic32mx/lib\libmchp_peripheral_32MX675F512H.a(pcache.o)

.bss%z43        0x00000000        0x0
 .bss           0x00000000        0x0 c:/program files (x86)/microchip/mplabc32/v2.01/bin/../lib/gcc/pic32mx/4.5.1/../../../../pic32mx/lib\libmchp_peripheral_32MX675F512H.a(pcache.o)

.data%z44       0x00000000        0x0
 .data          0x00000000        0x0 c:/program files (x86)/microchip/mplabc32/v2.01/bin/../lib/gcc/pic32mx/4.5.1/../../../../pic32mx/lib\libmchp_peripheral_32MX675F512H.a(pcache.o)

.bss%z45        0x00000000        0x0
 .bss           0x00000000        0x0 c:/program files (x86)/microchip/mplabc32/v2.01/bin/../lib/gcc/pic32mx/4.5.1/../../../../pic32mx/lib\libm.a(fp32.o)

.data%z46       0x00000000        0x0
 .data          0x00000000        0x0 c:/program files (x86)/microchip/mplabc32/v2.01/bin/../lib/gcc/pic32mx/4.5.1/../../../../pic32mx/lib\libm.a(fp32.o)

.mdebug.abi32%z47
                0x00000000        0x0
 .mdebug.abi32  0x00000000        0x0 c:/program files (x86)/microchip/mplabc32/v2.01/bin/../lib/gcc/pic32mx/4.5.1/../../../../pic32mx/lib\libc.a(c32_uart.o)

.bss%z48        0x00000000        0x0
 .bss           0x00000000        0x0 c:/program files (x86)/microchip/mplabc32/v2.01/bin/../lib/gcc/pic32mx/4.5.1/../../../../pic32mx/lib\libc.a(c32_uart.o)

.data%z49       0x00000000        0x0
 .data          0x00000000        0x0 c:/program files (x86)/microchip/mplabc32/v2.01/bin/../lib/gcc/pic32mx/4.5.1/../../../../pic32mx/lib\libc.a(c32_uart.o)

.mdebug.abi32%z50
                0x00000000        0x0
 .mdebug.abi32  0x00000000        0x0 c:/program files (x86)/microchip/mplabc32/v2.01/bin/../lib/gcc/pic32mx/4.5.1/../../../../pic32mx/lib\libc.a(_mon_putc.o)

.bss%z51        0x00000000        0x0
 .bss           0x00000000        0x0 c:/program files (x86)/microchip/mplabc32/v2.01/bin/../lib/gcc/pic32mx/4.5.1/../../../../pic32mx/lib\libc.a(_mon_putc.o)

.data%z52       0x00000000        0x0
 .data          0x00000000        0x0 c:/program files (x86)/microchip/mplabc32/v2.01/bin/../lib/gcc/pic32mx/4.5.1/../../../../pic32mx/lib\libc.a(_mon_putc.o)

.mdebug.abi32%z53
                0x00000000        0x0
 .mdebug.abi32  0x00000000        0x0 c:/program files (x86)/microchip/mplabc32/v2.01/bin/../lib/gcc/pic32mx/4.5.1/../../../../pic32mx/lib\libc.a(_flsbuf_simple.o)

.bss%z54        0x00000000        0x0
 .bss           0x00000000        0x0 c:/program files (x86)/microchip/mplabc32/v2.01/bin/../lib/gcc/pic32mx/4.5.1/../../../../pic32mx/lib\libc.a(_flsbuf_simple.o)

.data%z55       0x00000000        0x0
 .data          0x00000000        0x0 c:/program files (x86)/microchip/mplabc32/v2.01/bin/../lib/gcc/pic32mx/4.5.1/../../../../pic32mx/lib\libc.a(_flsbuf_simple.o)

.mdebug.abi32%z56
                0x00000000        0x0
 .mdebug.abi32  0x00000000        0x0 c:/program files (x86)/microchip/mplabc32/v2.01/bin/../lib/gcc/pic32mx/4.5.1/../../../../pic32mx/lib\libc.a(_iob.o)

.mdebug.abi32%z57
                0x00000000        0x0
 .mdebug.abi32  0x00000000        0x0 c:/program files (x86)/microchip/mplabc32/v2.01/bin/../lib/gcc/pic32mx/4.5.1/../../../../pic32mx/lib\libc.a(write.o)

.bss%z58        0x00000000        0x0
 .bss           0x00000000        0x0 c:/program files (x86)/microchip/mplabc32/v2.01/bin/../lib/gcc/pic32mx/4.5.1/../../../../pic32mx/lib\libc.a(write.o)

.data%z59       0x00000000        0x0
 .data          0x00000000        0x0 c:/program files (x86)/microchip/mplabc32/v2.01/bin/../lib/gcc/pic32mx/4.5.1/../../../../pic32mx/lib\libc.a(write.o)

.mdebug.abi32%z60
                0x00000000        0x0
 .mdebug.abi32  0x00000000        0x0 c:/program files (x86)/microchip/mplabc32/v2.01/bin/../lib/gcc/pic32mx/4.5.1/../../../../pic32mx/lib\libc.a(_fputc_simple.o)

.bss%z61        0x00000000        0x0
 .bss           0x00000000        0x0 c:/program files (x86)/microchip/mplabc32/v2.01/bin/../lib/gcc/pic32mx/4.5.1/../../../../pic32mx/lib\libc.a(_fputc_simple.o)

.data%z62       0x00000000        0x0
 .data          0x00000000        0x0 c:/program files (x86)/microchip/mplabc32/v2.01/bin/../lib/gcc/pic32mx/4.5.1/../../../../pic32mx/lib\libc.a(_fputc_simple.o)

.mdebug.abi32%z63
                0x00000000        0x0
 .mdebug.abi32  0x00000000        0x0 c:/program files (x86)/microchip/mplabc32/v2.01/bin/../lib/gcc/pic32mx/4.5.1/../../../../pic32mx/lib\libc.a(doprnt_cdnopsuxX.eo)

.bss%z64        0x00000000        0x0
 .bss           0x00000000        0x0 c:/program files (x86)/microchip/mplabc32/v2.01/bin/../lib/gcc/pic32mx/4.5.1/../../../../pic32mx/lib\libc.a(doprnt_cdnopsuxX.eo)

.data%z65       0x00000000        0x0
 .data          0x00000000        0x0 c:/program files (x86)/microchip/mplabc32/v2.01/bin/../lib/gcc/pic32mx/4.5.1/../../../../pic32mx/lib\libc.a(doprnt_cdnopsuxX.eo)

.mdebug.abi32%z66
                0x00000000        0x0
 .mdebug.abi32  0x00000000        0x0 c:/program files (x86)/microchip/mplabc32/v2.01/bin/../lib/gcc/pic32mx/4.5.1/../../../../pic32mx/lib\libc.a(ctype.o)

.bss%z67        0x00000000        0x0
 .bss           0x00000000        0x0 c:/program files (x86)/microchip/mplabc32/v2.01/bin/../lib/gcc/pic32mx/4.5.1/../../../../pic32mx/lib\libc.a(ctype.o)

.data%z68       0x00000000        0x0
 .data          0x00000000        0x0 c:/program files (x86)/microchip/mplabc32/v2.01/bin/../lib/gcc/pic32mx/4.5.1/../../../../pic32mx/lib\libc.a(ctype.o)

.bss%z69        0x00000000        0x0
 .bss           0x00000000        0x0 c:/program files (x86)/microchip/mplabc32/v2.01/bin/../lib/gcc/pic32mx/4.5.1/../../../../pic32mx/lib\libc.a(default-nmi-handler.o)

.data%z70       0x00000000        0x0
 .data          0x00000000        0x0 c:/program files (x86)/microchip/mplabc32/v2.01/bin/../lib/gcc/pic32mx/4.5.1/../../../../pic32mx/lib\libc.a(default-nmi-handler.o)

.mdebug.abi32%z71
                0x00000000        0x0
 .mdebug.abi32  0x00000000        0x0 c:/program files (x86)/microchip/mplabc32/v2.01/bin/../lib/gcc/pic32mx/4.5.1/../../../../pic32mx/lib\libc.a(default-on-bootstrap.o)

.bss%z72        0x00000000        0x0
 .bss           0x00000000        0x0 c:/program files (x86)/microchip/mplabc32/v2.01/bin/../lib/gcc/pic32mx/4.5.1/../../../../pic32mx/lib\libc.a(default-on-bootstrap.o)

.data%z73       0x00000000        0x0
 .data          0x00000000        0x0 c:/program files (x86)/microchip/mplabc32/v2.01/bin/../lib/gcc/pic32mx/4.5.1/../../../../pic32mx/lib\libc.a(default-on-bootstrap.o)

.mdebug.abi32%z74
                0x00000000        0x0
 .mdebug.abi32  0x00000000        0x0 c:/program files (x86)/microchip/mplabc32/v2.01/bin/../lib/gcc/pic32mx/4.5.1/../../../../pic32mx/lib\libc.a(default-on-reset.o)

.bss%z75        0x00000000        0x0
 .bss           0x00000000        0x0 c:/program files (x86)/microchip/mplabc32/v2.01/bin/../lib/gcc/pic32mx/4.5.1/../../../../pic32mx/lib\libc.a(default-on-reset.o)

.data%z76       0x00000000        0x0
 .data          0x00000000        0x0 c:/program files (x86)/microchip/mplabc32/v2.01/bin/../lib/gcc/pic32mx/4.5.1/../../../../pic32mx/lib\libc.a(default-on-reset.o)

.mdebug.abi32%z77
                0x00000000        0x0
 .mdebug.abi32  0x00000000        0x0 c:/program files (x86)/microchip/mplabc32/v2.01/bin/../lib/gcc/pic32mx/4.5.1/../../../../pic32mx/lib\libc.a(default-bootstrap-exception-handler.o)

.bss%z78        0x00000000        0x0
 .bss           0x00000000        0x0 c:/program files (x86)/microchip/mplabc32/v2.01/bin/../lib/gcc/pic32mx/4.5.1/../../../../pic32mx/lib\libc.a(default-bootstrap-exception-handler.o)

.data%z79       0x00000000        0x0
 .data          0x00000000        0x0 c:/program files (x86)/microchip/mplabc32/v2.01/bin/../lib/gcc/pic32mx/4.5.1/../../../../pic32mx/lib\libc.a(default-bootstrap-exception-handler.o)

.mdebug.abi32%z80
                0x00000000        0x0
 .mdebug.abi32  0x00000000        0x0 c:/program files (x86)/microchip/mplabc32/v2.01/bin/../lib/gcc/pic32mx/4.5.1/../../../../pic32mx/lib\libc.a(default-general-exception-handler.o)

.bss%z81        0x00000000        0x0
 .bss           0x00000000        0x0 c:/program files (x86)/microchip/mplabc32/v2.01/bin/../lib/gcc/pic32mx/4.5.1/../../../../pic32mx/lib\libc.a(default-general-exception-handler.o)

.data%z82       0x00000000        0x0
 .data          0x00000000        0x0 c:/program files (x86)/microchip/mplabc32/v2.01/bin/../lib/gcc/pic32mx/4.5.1/../../../../pic32mx/lib\libc.a(default-general-exception-handler.o)

.mdebug.abi32%z83
                0x00000000        0x0
 .mdebug.abi32  0x00000000        0x0 c:/program files (x86)/microchip/mplabc32/v2.01/bin/../lib/gcc/pic32mx/4.5.1/../../../../pic32mx/lib\libc.a(sprintf_cdnopsuxX.eo)

.bss%z84        0x00000000        0x0
 .bss           0x00000000        0x0 c:/program files (x86)/microchip/mplabc32/v2.01/bin/../lib/gcc/pic32mx/4.5.1/../../../../pic32mx/lib\libc.a(sprintf_cdnopsuxX.eo)

.data%z85       0x00000000        0x0
 .data          0x00000000        0x0 c:/program files (x86)/microchip/mplabc32/v2.01/bin/../lib/gcc/pic32mx/4.5.1/../../../../pic32mx/lib\libc.a(sprintf_cdnopsuxX.eo)

.mdebug.abi32%z86
                0x00000000        0x0
 .mdebug.abi32  0x00000000        0x0 c:/program files (x86)/microchip/mplabc32/v2.01/bin/../lib/gcc/pic32mx/4.5.1/../../../../pic32mx/lib\libc.a(strncpy.o)

.bss%z87        0x00000000        0x0
 .bss           0x00000000        0x0 c:/program files (x86)/microchip/mplabc32/v2.01/bin/../lib/gcc/pic32mx/4.5.1/../../../../pic32mx/lib\libc.a(strncpy.o)

.data%z88       0x00000000        0x0
 .data          0x00000000        0x0 c:/program files (x86)/microchip/mplabc32/v2.01/bin/../lib/gcc/pic32mx/4.5.1/../../../../pic32mx/lib\libc.a(strncpy.o)

.mdebug.abi32%z89
                0x00000000        0x0
 .mdebug.abi32  0x00000000        0x0 c:/program files (x86)/microchip/mplabc32/v2.01/bin/../lib/gcc/pic32mx/4.5.1/../../../../pic32mx/lib\libc.a(strcat.o)

.bss%z90        0x00000000        0x0
 .bss           0x00000000        0x0 c:/program files (x86)/microchip/mplabc32/v2.01/bin/../lib/gcc/pic32mx/4.5.1/../../../../pic32mx/lib\libc.a(strcat.o)

.data%z91       0x00000000        0x0
 .data          0x00000000        0x0 c:/program files (x86)/microchip/mplabc32/v2.01/bin/../lib/gcc/pic32mx/4.5.1/../../../../pic32mx/lib\libc.a(strcat.o)

.mdebug.abi32%z92
                0x00000000        0x0
 .mdebug.abi32  0x00000000        0x0 c:/program files (x86)/microchip/mplabc32/v2.01/bin/../lib/gcc/pic32mx/4.5.1/../../../../pic32mx/lib\libc.a(rand.o)

.data%z93       0x00000000        0x0
 .data          0x00000000        0x0 c:/program files (x86)/microchip/mplabc32/v2.01/bin/../lib/gcc/pic32mx/4.5.1/../../../../pic32mx/lib\libc.a(rand.o)

.mdebug.abi32%z94
                0x00000000        0x0
 .mdebug.abi32  0x00000000        0x0 c:/program files (x86)/microchip/mplabc32/v2.01/bin/../lib/gcc/pic32mx/4.5.1/../../../../pic32mx/lib\libc.a(ctypef.o)

.bss%z95        0x00000000        0x0
 .bss           0x00000000        0x0 c:/program files (x86)/microchip/mplabc32/v2.01/bin/../lib/gcc/pic32mx/4.5.1/../../../../pic32mx/lib\libc.a(ctypef.o)

.data%z96       0x00000000        0x0
 .data          0x00000000        0x0 c:/program files (x86)/microchip/mplabc32/v2.01/bin/../lib/gcc/pic32mx/4.5.1/../../../../pic32mx/lib\libc.a(ctypef.o)

.bss%z97        0x00000000        0x0
 .bss           0x00000000        0x0 c:/program files (x86)/microchip/mplabc32/v2.01/bin/../lib/gcc/pic32mx/4.5.1/../../../../pic32mx/lib\libc.a(general-exception.o)

.data%z98       0x00000000        0x0
 .data          0x00000000        0x0 c:/program files (x86)/microchip/mplabc32/v2.01/bin/../lib/gcc/pic32mx/4.5.1/../../../../pic32mx/lib\libc.a(general-exception.o)

.bss%z99        0x00000000        0x0
 .bss           0x00000000        0x0 c:/program files (x86)/microchip/mplabc32/v2.01/bin/../lib/gcc/pic32mx/4.5.1/../../../../pic32mx/lib\libc.a(strlen.o)

.data%z100      0x00000000        0x0
 .data          0x00000000        0x0 c:/program files (x86)/microchip/mplabc32/v2.01/bin/../lib/gcc/pic32mx/4.5.1/../../../../pic32mx/lib\libc.a(strlen.o)

.bss%z101       0x00000000        0x0
 .bss           0x00000000        0x0 c:/program files (x86)/microchip/mplabc32/v2.01/bin/../lib/gcc/pic32mx/4.5.1/../../../../pic32mx/lib\libc.a(strcpy.o)

.data%z102      0x00000000        0x0
 .data          0x00000000        0x0 c:/program files (x86)/microchip/mplabc32/v2.01/bin/../lib/gcc/pic32mx/4.5.1/../../../../pic32mx/lib\libc.a(strcpy.o)

.bss%z103       0x00000000        0x0
 .bss           0x00000000        0x0 c:/program files (x86)/microchip/mplabc32/v2.01/bin/../lib/gcc/pic32mx/4.5.1/../../../../pic32mx/lib\libc.a(memset.o)

.data%z104      0x00000000        0x0
 .data          0x00000000        0x0 c:/program files (x86)/microchip/mplabc32/v2.01/bin/../lib/gcc/pic32mx/4.5.1/../../../../pic32mx/lib\libc.a(memset.o)

.bss%z105       0x00000000        0x0
 .bss           0x00000000        0x0 c:/program files (x86)/microchip/mplabc32/v2.01/bin/../lib/gcc/pic32mx/4.5.1/../../../../pic32mx/lib\libc.a(memcpy.o)

.data%z106      0x00000000        0x0
 .data          0x00000000        0x0 c:/program files (x86)/microchip/mplabc32/v2.01/bin/../lib/gcc/pic32mx/4.5.1/../../../../pic32mx/lib\libc.a(memcpy.o)

.mdebug.abi32%z107
                0x00000000        0x0
 .mdebug.abi32  0x00000000        0x0 Object - MDD File System-SD Card\win-p.o

.bss%z108       0x00000000        0x0
 .bss           0x00000000        0x0 Object - MDD File System-SD Card\win-p.o

.data%z109      0x00000000        0x0
 .data          0x00000000        0x0 Object - MDD File System-SD Card\win-p.o

.mdebug.abi32%z110
                0x00000000        0x0
 .mdebug.abi32  0x00000000        0x0 Object - MDD File System-SD Card\input-p.o

.bss%z111       0x00000000        0x0
 .bss           0x00000000        0x0 Object - MDD File System-SD Card\input-p.o

.data%z112      0x00000000        0x0
 .data          0x00000000        0x0 Object - MDD File System-SD Card\input-p.o

.mdebug.abi32%z113
                0x00000000        0x0
 .mdebug.abi32  0x00000000        0x0 Object - MDD File System-SD Card\global.o

.bss%z114       0x00000000        0x0
 .bss           0x00000000        0x0 Object - MDD File System-SD Card\global.o

.data%z115      0x00000000        0x0
 .data          0x00000000        0x0 Object - MDD File System-SD Card\global.o

.mdebug.abi32%z116
                0x00000000        0x0
 .mdebug.abi32  0x00000000        0x0 Object - MDD File System-SD Card\game.o

.bss%z117       0x00000000        0x0
 .bss           0x00000000        0x0 Object - MDD File System-SD Card\game.o

.data%z118      0x00000000        0x0
 .data          0x00000000        0x0 Object - MDD File System-SD Card\game.o

.mdebug.abi32%z119
                0x00000000        0x0
 .mdebug.abi32  0x00000000        0x0 Object - MDD File System-SD Card\eor-p.o

.bss%z120       0x00000000        0x0
 .bss           0x00000000        0x0 Object - MDD File System-SD Card\eor-p.o

.data%z121      0x00000000        0x0
 .data          0x00000000        0x0 Object - MDD File System-SD Card\eor-p.o

.mdebug.abi32%z122
                0x00000000        0x0
 .mdebug.abi32  0x00000000        0x0 Object - MDD File System-SD Card\battle-p.o

.bss%z123       0x00000000        0x0
 .bss           0x00000000        0x0 Object - MDD File System-SD Card\battle-p.o

.data%z124      0x00000000        0x0
 .data          0x00000000        0x0 Object - MDD File System-SD Card\battle-p.o

.mdebug.abi32%z125
                0x00000000        0x0
 .mdebug.abi32  0x00000000        0x0 Object - MDD File System-SD Card\bitbang.o

.bss%z126       0x00000000        0x0
 .bss           0x00000000        0x0 Object - MDD File System-SD Card\bitbang.o

.data%z127      0x00000000        0x0
 .data          0x00000000        0x0 Object - MDD File System-SD Card\bitbang.o

.mdebug.abi32%z128
                0x00000000        0x0
 .mdebug.abi32  0x00000000        0x0 Object - MDD File System-SD Card\sendspi.o

.bss%z129       0x00000000        0x0
 .bss           0x00000000        0x0 Object - MDD File System-SD Card\sendspi.o

.data%z130      0x00000000        0x0
 .data          0x00000000        0x0 Object - MDD File System-SD Card\sendspi.o

.mdebug.abi32%z131
                0x00000000        0x0
 .mdebug.abi32  0x00000000        0x0 Object - MDD File System-SD Card\buttons.o

.bss%z132       0x00000000        0x0
 .bss           0x00000000        0x0 Object - MDD File System-SD Card\buttons.o

.data%z133      0x00000000        0x0
 .data          0x00000000        0x0 Object - MDD File System-SD Card\buttons.o

.mdebug.abi32%z134
                0x00000000        0x0
 .mdebug.abi32  0x00000000        0x0 Object - MDD File System-SD Card\Demonstration1.o

.bss%z135       0x00000000        0x0
 .bss           0x00000000        0x0 Object - MDD File System-SD Card\Demonstration1.o

.mdebug.abi32%z136
                0x00000000        0x0
 .mdebug.abi32  0x00000000        0x0 Object - MDD File System-SD Card\FSIO.o

.bss%z137       0x00000000        0x0
 .bss           0x00000000        0x0 Object - MDD File System-SD Card\FSIO.o

.data%z138      0x00000000        0x0
 .data          0x00000000        0x0 Object - MDD File System-SD Card\FSIO.o

.mdebug.abi32%z139
                0x00000000        0x0
 .mdebug.abi32  0x00000000        0x0 Object - MDD File System-SD Card\SD-SPI.o

.data%z140      0x00000000        0x0
 .data          0x00000000        0x0 Object - MDD File System-SD Card\SD-SPI.o

.bss%z141       0x00000000        0x0
 .bss           0x00000000        0x0 c:/program files (x86)/microchip/mplabc32/v2.01/bin/../lib/gcc/pic32mx/4.5.1/../../../../pic32mx/lib/crt0.o

.data%z142      0x00000000        0x0
 .data          0x00000000        0x0 c:/program files (x86)/microchip/mplabc32/v2.01/bin/../lib/gcc/pic32mx/4.5.1/../../../../pic32mx/lib/crt0.o

.text           0x9d00085c    0x276d4
 .text          0x9d00085c    0x11634 Object - MDD File System-SD Card\FSIO.o
                0x9d00085c                FSInit
                0x9d0009c8                FILEfind
                0x9d002544                FILEopen
                0x9d0027c8                FILEget_next_cluster
                0x9d002934                DISKmount
                0x9d002a5c                LoadMBR
                0x9d002eb8                LoadBootSector
                0x9d0036a4                GetFullClusterNumber
                0x9d0036fc                FSCreateMBR
                0x9d003b38                FSformat
                0x9d0056f8                Write_File_Entry
                0x9d005868                FAT_erase_cluster_chain
                0x9d005a2c                Cache_File_Entry
                0x9d005e38                CreateFileEntry
                0x9d0064f0                CreateFirstCluster
                0x9d0065d0                FindEmptyEntries
                0x9d0068c0                PopulateEntries
                0x9d006a74                Alias_LFN_Object
                0x9d007494                FILEallocate_new_cluster
                0x9d0075e8                FATfindEmptyCluster
                0x9d007794                FSfclose
                0x9d0079c8                IncrementTimeStamp
                0x9d007c10                Fill_File_Object
                0x9d007ef8                Fill_LFN_Object
                0x9d008064                LoadDirAttrib
                0x9d008194                FILEerase
                0x9d008414                FSrename
                0x9d008668                wFSrename
                0x9d0086c0                wFSfopen
                0x9d008718                FSfopen
                0x9d00901c                FSftell
                0x9d00904c                FSremove
                0x9d0092dc                wFSremove
                0x9d00932c                FSrewind
                0x9d009398                FSerror
                0x9d0093bc                FileObjectCopy
                0x9d009448                FILECreateHeadCluster
                0x9d0095d4                EraseCluster
                0x9d009720                ReadByte
                0x9d00975c                ReadWord
                0x9d0097e0                ReadDWord
                0x9d009874                Cluster2Sector
                0x9d009960                FSattrib
                0x9d009ab4                FSfwrite
                0x9d009f80                flushData
                0x9d00a030                FSfeof
                0x9d00a070                FSfread
                0x9d00a3e4                FormatFileName
                0x9d00ac90                FormatDirName
                0x9d00b6c0                ValidateChars
                0x9d00bd4c                FSfseek
                0x9d00c118                ReadFAT
                0x9d00c5f4                WriteFAT
                0x9d00cbe0                FSchdir
                0x9d00cc20                wFSchdir
                0x9d00cc78                chdirhelper
                0x9d00d688                FSgetcwd
                0x9d00e4dc                wFSgetcwd
                0x9d00e534                GetPreviousEntry
                0x9d00ec1c                FSmkdir
                0x9d00ec5c                wFSmkdir
                0x9d00ecb4                mkdirhelper
                0x9d00f954                CreateDIR
                0x9d00fb34                writeDotEntries
                0x9d00fdcc                FSrmdir
                0x9d00fe1c                wFSrmdir
                0x9d00fe84                rmdirhelper
                0x9d01134c                eraseDir
                0x9d0114ac                FindFirst
                0x9d0119c0                FindNext
                0x9d011e30                wFindFirst
 .text          0x9d011e90    0x10034 Object - MDD File System-SD Card\global.o
                0x9d011e90                get_activepokemon
                0x9d011ed0                has_type
                0x9d011f38                has_pp
                0x9d011fbc                get_move
                0x9d01208c                is_move
                0x9d012118                valid_action
                0x9d01229c                get_statusname
                0x9d012398                is_aggressive
                0x9d012474                get_index
                0x9d01256c                reset_v
                0x9d0125e0                switchto
                0x9d01265c                roll
                0x9d0126bc                rng
                0x9d01274c                display_pokemon
                0x9d01289c                close_menu
                0x9d0128f8                display_menu
                0x9d012a54                get_pnum
                0x9d012ac0                display_hp
                0x9d012d24                toUpper
                0x9d012db8                get_spritepath
                0x9d012f88                noop
                0x9d012fa8                text_update
                0x9d013080                text_clear
                0x9d013124                text_send
                0x9d013224                send
                0x9d013294                init_rng
                0x9d0132c8                init_menus
                0x9d013b0c                init_echart
                0x9d014e9c                init_pokemonspec
                0x9d01b28c                init_moves
                0x9d020088                init_rentals
                0x9d021af0                init_trainers
                0x9d021c98                init_battle
                0x9d021d24                init_textbox
 .text          0x9d021ec4     0x4520 Object - MDD File System-SD Card\battle-p.o
                0x9d021ec4                set_curr
                0x9d021f34                swap_curr
                0x9d021f74                check_priority
                0x9d022178                get_priority
                0x9d0221e4                calc_hpmax
                0x9d022290                calc_attack
                0x9d022438                calc_defense
                0x9d0225e0                calc_sattack
                0x9d022790                calc_sdefense
                0x9d02293c                calc_speed
                0x9d022b2c                calc_accuracy
                0x9d022bb8                calc_accuracy_n
                0x9d022c60                calc_accuracy_d
                0x9d022d08                curr_exe
                0x9d022dec                curr_move
                0x9d022e40                curr_switchto
                0x9d022efc                curr_attack
                0x9d0246b8                calc_damage
                0x9d024818                calc_effective
                0x9d0248d8                get_effective
                0x9d0249a8                apply_damage
                0x9d024ac0                apply_attackstage
                0x9d024d88                apply_defensestage
                0x9d025050                apply_sattackstage
                0x9d025318                apply_sdefensestage
                0x9d0255e0                apply_speedstage
                0x9d0258a8                apply_accuracystage
                0x9d025b70                apply_evasionstage
                0x9d025e38                reset_stages
                0x9d025ec8                apply_nvstatus
                0x9d02638c                battle_phase
 .text          0x9d0263e4     0x1b4c Object - MDD File System-SD Card\SD-SPI.o
                0x9d0263e4                MDD_SDSPI_MediaDetect
                0x9d026570                MDD_SDSPI_ReadSectorSize
                0x9d026594                MDD_SDSPI_ReadCapacity
                0x9d0265b8                MDD_SDSPI_InitIO
                0x9d026624                MDD_SDSPI_ShutdownMedia
                0x9d02666c                SendMMCCmd
                0x9d026940                MDD_SDSPI_SectorRead
                0x9d0269e4                MDD_SDSPI_AsyncReadTasks
                0x9d026e8c                MDD_SDSPI_AsyncWriteTasks
                0x9d02740c                MDD_SDSPI_SectorWrite
                0x9d027500                MDD_SDSPI_WriteProtectState
                0x9d027524                Delayms
                0x9d02759c                CloseSPIM
                0x9d0275d0                WriteSPIM
                0x9d027630                MDD_SDSPI_ReadMedia
                0x9d027684                OpenSPIM
                0x9d0277c4                InitSPISlowMode
                0x9d0278a4                MDD_SDSPI_MediaInitialize

.rodata         0x9d027f30      0xbc4
 .rodata        0x9d027f30      0xbc4 Object - MDD File System-SD Card\global.o

.text._vfprintf_cdnopsuxX
                0x9d028af4      0xae4
 .text._vfprintf_cdnopsuxX
                0x9d028af4      0xae4 c:/program files (x86)/microchip/mplabc32/v2.01/bin/../lib/gcc/pic32mx/4.5.1/../../../../pic32mx/lib\libc.a(doprnt_cdnopsuxX.eo)
                0x9d028af4                _vfprintf_0
                0x9d028af4                _vfprintf_cdnopsuxX
                0x9d028af4                _vfprintf_s

.rodata         0x9d0295d8      0x9c4
 .rodata        0x9d0295d8      0x9c4 Object - MDD File System-SD Card\battle-p.o

.text           0x9d029f9c     0x2d08
 .text          0x9d029f9c      0x8ec c:/program files (x86)/microchip/mplabc32/v2.01/bin/../lib/gcc/pic32mx/4.5.1/../../../../pic32mx/lib\libm.a(fp32.o)
                0x9d029f9c                fpsub
                0x9d029f9c                __subsf3
                0x9d029fa4                __addsf3
                0x9d029fa4                fpadd
                0x9d02a210                __mulsf3
                0x9d02a210                fpmul
                0x9d02a3c8                fpdiv
                0x9d02a3c8                __divsf3
                0x9d02a5f4                sitofp
                0x9d02a5f4                litofp
                0x9d02a5f4                __floatsisf
                0x9d02a650                ultofp
                0x9d02a650                uitofp
                0x9d02a69c                fptosi
                0x9d02a69c                fptoli
                0x9d02a69c                __fixsfsi
                0x9d02a714                fptoui
                0x9d02a714                __fixunssfsi
                0x9d02a714                fptoul
                0x9d02a788                __nesf2
                0x9d02a788                fpcmp
                0x9d02a788                __eqsf2
                0x9d02a788                __gesf2
                0x9d02a788                __ltsf2
                0x9d02a788                __gtsf2
                0x9d02a788                __lesf2
                0x9d02a81c                fpfabs
                0x9d02a81c                fabsf
                0x9d02a82c                __negsf2
                0x9d02a83c                fpnan
                0x9d02a83c                nanf
 .text          0x9d02a888      0x89c Object - MDD File System-SD Card\bitbang.o
                0x9d02a888                sendCompressedSpriteFile
                0x9d02a954                sendCompressedSprite
                0x9d02aa98                sendText
                0x9d02ac00                updateHealthBarImages
                0x9d02ac70                updateMenuState
                0x9d02ace0                sendFullScreenMessage
                0x9d02ae48                animateMainSprites
                0x9d02aea0                sendCharViaBitBanging
 .text          0x9d02b124      0x680 Object - MDD File System-SD Card\input-p.o
                0x9d02b124                get_action
                0x9d02b250                get_input
                0x9d02b34c                set_menus
                0x9d02b6d0                input_phase
 .text          0x9d02b7a4      0x5a4 Object - MDD File System-SD Card\Demonstration1.o
                0x9d02b7a4                main
 .text          0x9d02bd48      0x46c c:/program files (x86)/microchip/mplabc32/v2.01/bin/../lib/gcc/pic32mx/4.5.1\libgcc.a(_umoddi3.o)
                0x9d02bd48                __umoddi3
 .text          0x9d02c1b4      0x448 c:/program files (x86)/microchip/mplabc32/v2.01/bin/../lib/gcc/pic32mx/4.5.1\libgcc.a(_udivdi3.o)
                0x9d02c1b4                __udivdi3
 .text          0x9d02c5fc      0x3a4 Object - MDD File System-SD Card\win-p.o
                0x9d02c5fc                is_alive
                0x9d02c630                can_fight
                0x9d02c6c8                win_phase
 .text          0x9d02c9a0      0x304 Object - MDD File System-SD Card\eor-p.o
                0x9d02c9a0                do_eoreffects
                0x9d02cb00                do_brn
                0x9d02cb70                do_psn
                0x9d02cbe0                do_txc
                0x9d02cc74                eor_phase

.dinit          0x9d02cca4      0x228
 .dinit         0x9d02cca4      0x228 data_init

.text           0x9d02cecc      0x200
 .text          0x9d02cecc      0x200 Object - MDD File System-SD Card\game.o
                0x9d02cecc                game
                0x9d02cfec                init
                0x9d02d054                begin

.text.RtccOpen  0x9d02d0cc      0x1ec
 .text.RtccOpen
                0x9d02d0cc      0x1ec c:/program files (x86)/microchip/mplabc32/v2.01/bin/../lib/gcc/pic32mx/4.5.1/../../../../pic32mx/lib\libmchp_peripheral_32MX675F512H.a(rtcc_open_lib.o)
                0x9d02d0cc                RtccOpen

.text           0x9d02d2b8      0x5f0
 .text          0x9d02d2b8      0x1a0 c:/program files (x86)/microchip/mplabc32/v2.01/bin/../lib/gcc/pic32mx/4.5.1/../../../../pic32mx/lib\libc.a(strcpy.o)
                0x9d02d2b8                strcpy
 .text          0x9d02d458      0x180 Object - MDD File System-SD Card\sendspi.o
                0x9d02d458                initspi3
                0x9d02d4f0                spi3_send_receive
                0x9d02d544                sendCompressedSpriteOld
 .text          0x9d02d5d8      0x168 c:/program files (x86)/microchip/mplabc32/v2.01/bin/../lib/gcc/pic32mx/4.5.1/../../../../pic32mx/lib\libc.a(memcpy.o)
                0x9d02d5d8                memcpy
 .text          0x9d02d740      0x168 c:/program files (x86)/microchip/mplabc32/v2.01/bin/../lib/gcc/pic32mx/4.5.1/../../../../pic32mx/lib\libc.a(strlen.o)
                0x9d02d740                strlen

.text.fputc     0x9d02d8a8      0x140
 .text.fputc    0x9d02d8a8      0x140 c:/program files (x86)/microchip/mplabc32/v2.01/bin/../lib/gcc/pic32mx/4.5.1/../../../../pic32mx/lib\libc.a(_fputc_simple.o)
                0x9d02d8a8                fputc

.text           0x9d02d9e8      0x138
 .text          0x9d02d9e8      0x138 Object - MDD File System-SD Card\buttons.o
                0x9d02d9e8                getButtonInput

.text._flsbuf   0x9d02db20      0x12c
 .text._flsbuf  0x9d02db20      0x12c c:/program files (x86)/microchip/mplabc32/v2.01/bin/../lib/gcc/pic32mx/4.5.1/../../../../pic32mx/lib\libc.a(_flsbuf_simple.o)
                0x9d02db20                _flsbuf

.rodata         0x9d02dc4c      0x104
 .rodata        0x9d02dc4c      0x104 c:/program files (x86)/microchip/mplabc32/v2.01/bin/../lib/gcc/pic32mx/4.5.1/../../../../pic32mx/lib\libc.a(ctype.o)
                0x9d02dc4c                _ctype

.text._RtccWaitClockOff
                0x9d02dd50       0xf8
 .text._RtccWaitClockOff
                0x9d02dd50       0xf8 c:/program files (x86)/microchip/mplabc32/v2.01/bin/../lib/gcc/pic32mx/4.5.1/../../../../pic32mx/lib\libmchp_peripheral_32MX675F512H.a(_rtcc_wait_clock_off_lib.o)
                0x9d02dd50                _RtccWaitClockOff

.rodata         0x9d02de48      0x1d4
 .rodata        0x9d02de48       0xf0 Object - MDD File System-SD Card\SD-SPI.o
                0x9d02de48                sdmmc_cmdtable
 .rodata        0x9d02df38       0xe4 Object - MDD File System-SD Card\Demonstration1.o

.text.general_exception
                0x9d02e01c       0xd0
 .text.general_exception
                0x9d02e01c       0xd0 c:/program files (x86)/microchip/mplabc32/v2.01/bin/../lib/gcc/pic32mx/4.5.1/../../../../pic32mx/lib\libc.a(general-exception.o)
                0x9d02e01c                _general_exception_context

.rodata         0x9d02e0f0       0xd0
 .rodata        0x9d02e0f0       0xd0 c:/program files (x86)/microchip/mplabc32/v2.01/bin/../lib/gcc/pic32mx/4.5.1/../../../../pic32mx/lib\libc.a(doprnt_cdnopsuxX.eo)

.text._mon_putc
                0x9d02e1c0       0xb4
 .text._mon_putc
                0x9d02e1c0       0xb4 c:/program files (x86)/microchip/mplabc32/v2.01/bin/../lib/gcc/pic32mx/4.5.1/../../../../pic32mx/lib\libc.a(_mon_putc.o)
                0x9d02e1c0                _mon_putc

.text           0x9d02e274       0xa8
 .text          0x9d02e274       0xa8 c:/program files (x86)/microchip/mplabc32/v2.01/bin/../lib/gcc/pic32mx/4.5.1/../../../../pic32mx/lib\libc.a(memset.o)
                0x9d02e274                memset

.text.write     0x9d02e31c       0x88
 .text.write    0x9d02e31c       0x88 c:/program files (x86)/microchip/mplabc32/v2.01/bin/../lib/gcc/pic32mx/4.5.1/../../../../pic32mx/lib\libc.a(write.o)
                0x9d02e31c                write

.text._sprintf_cdnopsuxX
                0x9d02e3a4       0x68
 .text._sprintf_cdnopsuxX
                0x9d02e3a4       0x68 c:/program files (x86)/microchip/mplabc32/v2.01/bin/../lib/gcc/pic32mx/4.5.1/../../../../pic32mx/lib\libc.a(sprintf_cdnopsuxX.eo)
                0x9d02e3a4                _sprintf_0
                0x9d02e3a4                _sprintf_cdnopsuxX
                0x9d02e3a4                _sprintf_s

.text.strncpy   0x9d02e40c       0x64
 .text.strncpy  0x9d02e40c       0x64 c:/program files (x86)/microchip/mplabc32/v2.01/bin/../lib/gcc/pic32mx/4.5.1/../../../../pic32mx/lib\libc.a(strncpy.o)
                0x9d02e40c                strncpy

.text.OpenSPI2  0x9d02e470       0x60
 .text.OpenSPI2
                0x9d02e470       0x60 c:/program files (x86)/microchip/mplabc32/v2.01/bin/../lib/gcc/pic32mx/4.5.1/../../../../pic32mx/lib\libmchp_peripheral_32MX675F512H.a(spi_open_spi2_lib_legacy.o)
                0x9d02e470                OpenSPI2

.text.INTEnable
                0x9d02e4d0       0x58
 .text.INTEnable
                0x9d02e4d0       0x58 c:/program files (x86)/microchip/mplabc32/v2.01/bin/../lib/gcc/pic32mx/4.5.1/../../../../pic32mx/lib\libmchp_peripheral_32MX675F512H.a(int_tbl_lib.o)
                0x9d02e4d0                INTEnable

.text.rand      0x9d02e528       0x50
 .text.rand     0x9d02e528       0x50 c:/program files (x86)/microchip/mplabc32/v2.01/bin/../lib/gcc/pic32mx/4.5.1/../../../../pic32mx/lib\libc.a(rand.o)
                0x9d02e528                rand

.text.INTSetVectorPriority
                0x9d02e578       0x3c
 .text.INTSetVectorPriority
                0x9d02e578       0x3c c:/program files (x86)/microchip/mplabc32/v2.01/bin/../lib/gcc/pic32mx/4.5.1/../../../../pic32mx/lib\libmchp_peripheral_32MX675F512H.a(int_tbl_lib.o)
                0x9d02e578                INTSetVectorPriority

.text.INTSetVectorSubPriority
                0x9d02e5b4       0x3c
 .text.INTSetVectorSubPriority
                0x9d02e5b4       0x3c c:/program files (x86)/microchip/mplabc32/v2.01/bin/../lib/gcc/pic32mx/4.5.1/../../../../pic32mx/lib\libmchp_peripheral_32MX675F512H.a(int_tbl_lib.o)
                0x9d02e5b4                INTSetVectorSubPriority

.text.strcat    0x9d02e5f0       0x38
 .text.strcat   0x9d02e5f0       0x38 c:/program files (x86)/microchip/mplabc32/v2.01/bin/../lib/gcc/pic32mx/4.5.1/../../../../pic32mx/lib\libc.a(strcat.o)
                0x9d02e5f0                strcat

.text.INTEnableSystemMultiVectoredInt
                0x9d02e628       0x34
 .text.INTEnableSystemMultiVectoredInt
                0x9d02e628       0x34 c:/program files (x86)/microchip/mplabc32/v2.01/bin/../lib/gcc/pic32mx/4.5.1/../../../../pic32mx/lib\libmchp_peripheral_32MX675F512H.a(int_enable_mv_int_lib.o)
                0x9d02e628                INTEnableSystemMultiVectoredInt

.text.INTGetVectorPriority
                0x9d02e65c       0x30
 .text.INTGetVectorPriority
                0x9d02e65c       0x30 c:/program files (x86)/microchip/mplabc32/v2.01/bin/../lib/gcc/pic32mx/4.5.1/../../../../pic32mx/lib\libmchp_peripheral_32MX675F512H.a(int_tbl_lib.o)
                0x9d02e65c                INTGetVectorPriority

.text.INTGetVectorSubPriority
                0x9d02e68c       0x30
 .text.INTGetVectorSubPriority
                0x9d02e68c       0x30 c:/program files (x86)/microchip/mplabc32/v2.01/bin/../lib/gcc/pic32mx/4.5.1/../../../../pic32mx/lib\libmchp_peripheral_32MX675F512H.a(int_tbl_lib.o)
                0x9d02e68c                INTGetVectorSubPriority

.text.INTClearFlag
                0x9d02e6bc       0x2c
 .text.INTClearFlag
                0x9d02e6bc       0x2c c:/program files (x86)/microchip/mplabc32/v2.01/bin/../lib/gcc/pic32mx/4.5.1/../../../../pic32mx/lib\libmchp_peripheral_32MX675F512H.a(int_tbl_lib.o)
                0x9d02e6bc                INTClearFlag

.text.INTSetFlag
                0x9d02e6e8       0x2c
 .text.INTSetFlag
                0x9d02e6e8       0x2c c:/program files (x86)/microchip/mplabc32/v2.01/bin/../lib/gcc/pic32mx/4.5.1/../../../../pic32mx/lib\libmchp_peripheral_32MX675F512H.a(int_tbl_lib.o)
                0x9d02e6e8                INTSetFlag

.text.INTGetFlag
                0x9d02e714       0x2c
 .text.INTGetFlag
                0x9d02e714       0x2c c:/program files (x86)/microchip/mplabc32/v2.01/bin/../lib/gcc/pic32mx/4.5.1/../../../../pic32mx/lib\libmchp_peripheral_32MX675F512H.a(int_tbl_lib.o)
                0x9d02e714                INTGetFlag

.text.INTGetEnable
                0x9d02e740       0x2c
 .text.INTGetEnable
                0x9d02e740       0x2c c:/program files (x86)/microchip/mplabc32/v2.01/bin/../lib/gcc/pic32mx/4.5.1/../../../../pic32mx/lib\libmchp_peripheral_32MX675F512H.a(int_tbl_lib.o)
                0x9d02e740                INTGetEnable

.rodata         0x9d02e76c       0x28
 .rodata        0x9d02e76c       0x28 Object - MDD File System-SD Card\game.o

.text.tolower   0x9d02e794       0x24
 .text.tolower  0x9d02e794       0x24 c:/program files (x86)/microchip/mplabc32/v2.01/bin/../lib/gcc/pic32mx/4.5.1/../../../../pic32mx/lib\libc.a(ctypef.o)
                0x9d02e794                tolower

.text.toupper   0x9d02e7b8       0x24
 .text.toupper  0x9d02e7b8       0x24 c:/program files (x86)/microchip/mplabc32/v2.01/bin/../lib/gcc/pic32mx/4.5.1/../../../../pic32mx/lib\libc.a(ctypef.o)
                0x9d02e7b8                toupper

.text.getcSPI2  0x9d02e7dc       0x20
 .text.getcSPI2
                0x9d02e7dc       0x20 c:/program files (x86)/microchip/mplabc32/v2.01/bin/../lib/gcc/pic32mx/4.5.1/../../../../pic32mx/lib\libmchp_peripheral_32MX675F512H.a(spi_getc_spi2_lib_legacy.o)
                0x9d02e7dc                getcSPI2

.text.INTRestoreInterrupts
                0x9d02e7fc       0x1c
 .text.INTRestoreInterrupts
                0x9d02e7fc       0x1c c:/program files (x86)/microchip/mplabc32/v2.01/bin/../lib/gcc/pic32mx/4.5.1/../../../../pic32mx/lib\libmchp_peripheral_32MX675F512H.a(int_restore_interrupts_lib.o)
                0x9d02e7fc                INTRestoreInterrupts

.text.isalnum   0x9d02e818       0x18
 .text.isalnum  0x9d02e818       0x18 c:/program files (x86)/microchip/mplabc32/v2.01/bin/../lib/gcc/pic32mx/4.5.1/../../../../pic32mx/lib\libc.a(ctypef.o)
                0x9d02e818                isalnum

.text.isalpha   0x9d02e830       0x18
 .text.isalpha  0x9d02e830       0x18 c:/program files (x86)/microchip/mplabc32/v2.01/bin/../lib/gcc/pic32mx/4.5.1/../../../../pic32mx/lib\libc.a(ctypef.o)
                0x9d02e830                isalpha

.text.iscntrl   0x9d02e848       0x18
 .text.iscntrl  0x9d02e848       0x18 c:/program files (x86)/microchip/mplabc32/v2.01/bin/../lib/gcc/pic32mx/4.5.1/../../../../pic32mx/lib\libc.a(ctypef.o)
                0x9d02e848                iscntrl

.text.isdigit   0x9d02e860       0x18
 .text.isdigit  0x9d02e860       0x18 c:/program files (x86)/microchip/mplabc32/v2.01/bin/../lib/gcc/pic32mx/4.5.1/../../../../pic32mx/lib\libc.a(ctypef.o)
                0x9d02e860                isdigit

.text.isgraph   0x9d02e878       0x18
 .text.isgraph  0x9d02e878       0x18 c:/program files (x86)/microchip/mplabc32/v2.01/bin/../lib/gcc/pic32mx/4.5.1/../../../../pic32mx/lib\libc.a(ctypef.o)
                0x9d02e878                isgraph

.text.islower   0x9d02e890       0x18
 .text.islower  0x9d02e890       0x18 c:/program files (x86)/microchip/mplabc32/v2.01/bin/../lib/gcc/pic32mx/4.5.1/../../../../pic32mx/lib\libc.a(ctypef.o)
                0x9d02e890                islower

.text.isprint   0x9d02e8a8       0x18
 .text.isprint  0x9d02e8a8       0x18 c:/program files (x86)/microchip/mplabc32/v2.01/bin/../lib/gcc/pic32mx/4.5.1/../../../../pic32mx/lib\libc.a(ctypef.o)
                0x9d02e8a8                isprint

.text.ispunct   0x9d02e8c0       0x18
 .text.ispunct  0x9d02e8c0       0x18 c:/program files (x86)/microchip/mplabc32/v2.01/bin/../lib/gcc/pic32mx/4.5.1/../../../../pic32mx/lib\libc.a(ctypef.o)
                0x9d02e8c0                ispunct

.text.isspace   0x9d02e8d8       0x18
 .text.isspace  0x9d02e8d8       0x18 c:/program files (x86)/microchip/mplabc32/v2.01/bin/../lib/gcc/pic32mx/4.5.1/../../../../pic32mx/lib\libc.a(ctypef.o)
                0x9d02e8d8                isspace

.text.isupper   0x9d02e8f0       0x18
 .text.isupper  0x9d02e8f0       0x18 c:/program files (x86)/microchip/mplabc32/v2.01/bin/../lib/gcc/pic32mx/4.5.1/../../../../pic32mx/lib\libc.a(ctypef.o)
                0x9d02e8f0                isupper

.text.isxdigit  0x9d02e908       0x18
 .text.isxdigit
                0x9d02e908       0x18 c:/program files (x86)/microchip/mplabc32/v2.01/bin/../lib/gcc/pic32mx/4.5.1/../../../../pic32mx/lib\libc.a(ctypef.o)
                0x9d02e908                isxdigit

.text.srand     0x9d02e920       0x18
 .text.srand    0x9d02e920       0x18 c:/program files (x86)/microchip/mplabc32/v2.01/bin/../lib/gcc/pic32mx/4.5.1/../../../../pic32mx/lib\libc.a(rand.o)
                0x9d02e920                srand

.text           0x9d02e938       0x18
 .text          0x9d02e938       0x18 c:/program files (x86)/microchip/mplabc32/v2.01/bin/../lib/gcc/pic32mx/4.5.1/../../../../pic32mx/lib\libc.a(default-nmi-handler.o)
                0x9d02e938                _nmi_handler

.text.CheKseg0CacheOff
                0x9d02e950       0x18
 .text.CheKseg0CacheOff
                0x9d02e950       0x18 c:/program files (x86)/microchip/mplabc32/v2.01/bin/../lib/gcc/pic32mx/4.5.1/../../../../pic32mx/lib\libmchp_peripheral_32MX675F512H.a(pcache.o)
                0x9d02e950                CheKseg0CacheOff

.text.CheKseg0CacheOn
                0x9d02e968       0x18
 .text.CheKseg0CacheOn
                0x9d02e968       0x18 c:/program files (x86)/microchip/mplabc32/v2.01/bin/../lib/gcc/pic32mx/4.5.1/../../../../pic32mx/lib\libmchp_peripheral_32MX675F512H.a(pcache.o)
                0x9d02e968                CheKseg0CacheOn

.text._RtccSetClockWait
                0x9d02e980       0x14
 .text._RtccSetClockWait
                0x9d02e980       0x14 c:/program files (x86)/microchip/mplabc32/v2.01/bin/../lib/gcc/pic32mx/4.5.1/../../../../pic32mx/lib\libmchp_peripheral_32MX675F512H.a(_rtcc_wait_clock_off_lib.o)
                0x9d02e980                _RtccSetClockWait

.text           0x9d02e994       0x10
 .text          0x9d02e994       0x10 c:/program files (x86)/microchip/mplabc32/v2.01/bin/../lib/gcc/pic32mx/4.5.1/../../../../pic32mx/lib/crt0.o
                0x9d02e99c                __crt0_exit

.rodata         0x9d02e9a4       0x1c
 .rodata        0x9d02e9a4       0x10 Object - MDD File System-SD Card\input-p.o
 .rodata        0x9d02e9b4        0xc Object - MDD File System-SD Card\FSIO.o

.text._general_exception_handler
                0x9d02e9c0        0xc
 .text._general_exception_handler
                0x9d02e9c0        0xc c:/program files (x86)/microchip/mplabc32/v2.01/bin/../lib/gcc/pic32mx/4.5.1/../../../../pic32mx/lib\libc.a(default-general-exception-handler.o)
                0x9d02e9c0                _general_exception_handler

.text._bootstrap_exception_handler
                0x9d02e9cc        0xc
 .text._bootstrap_exception_handler
                0x9d02e9cc        0xc c:/program files (x86)/microchip/mplabc32/v2.01/bin/../lib/gcc/pic32mx/4.5.1/../../../../pic32mx/lib\libc.a(default-bootstrap-exception-handler.o)
                0x9d02e9cc                _bootstrap_exception_handler

.text.isascii   0x9d02e9d8        0x8
 .text.isascii  0x9d02e9d8        0x8 c:/program files (x86)/microchip/mplabc32/v2.01/bin/../lib/gcc/pic32mx/4.5.1/../../../../pic32mx/lib\libc.a(ctypef.o)
                0x9d02e9d8                isascii

.text.toascii   0x9d02e9e0        0x8
 .text.toascii  0x9d02e9e0        0x8 c:/program files (x86)/microchip/mplabc32/v2.01/bin/../lib/gcc/pic32mx/4.5.1/../../../../pic32mx/lib\libc.a(ctypef.o)
                0x9d02e9e0                toascii

.text._tolower  0x9d02e9e8        0x8
 .text._tolower
                0x9d02e9e8        0x8 c:/program files (x86)/microchip/mplabc32/v2.01/bin/../lib/gcc/pic32mx/4.5.1/../../../../pic32mx/lib\libc.a(ctypef.o)
                0x9d02e9e8                _tolower

.text._toupper  0x9d02e9f0        0x8
 .text._toupper
                0x9d02e9f0        0x8 c:/program files (x86)/microchip/mplabc32/v2.01/bin/../lib/gcc/pic32mx/4.5.1/../../../../pic32mx/lib\libc.a(ctypef.o)
                0x9d02e9f0                _toupper

.text._on_reset
                0x9d02e9f8        0x8
 .text._on_reset
                0x9d02e9f8        0x8 c:/program files (x86)/microchip/mplabc32/v2.01/bin/../lib/gcc/pic32mx/4.5.1/../../../../pic32mx/lib\libc.a(default-on-reset.o)
                0x9d02e9f8                _on_reset

.text._on_bootstrap
                0x9d02ea00        0x8
 .text._on_bootstrap
                0x9d02ea00        0x8 c:/program files (x86)/microchip/mplabc32/v2.01/bin/../lib/gcc/pic32mx/4.5.1/../../../../pic32mx/lib\libc.a(default-on-bootstrap.o)
                0x9d02ea00                _on_bootstrap

.text.INTDisableInterrupts
                0x9d02ea08        0x8
 .text.INTDisableInterrupts
                0x9d02ea08        0x8 c:/program files (x86)/microchip/mplabc32/v2.01/bin/../lib/gcc/pic32mx/4.5.1/../../../../pic32mx/lib\libmchp_peripheral_32MX675F512H.a(int_disable_interrupts_lib.o)
                0x9d02ea08                INTDisableInterrupts

.text.INTEnableInterrupts
                0x9d02ea10        0x8
 .text.INTEnableInterrupts
                0x9d02ea10        0x8 c:/program files (x86)/microchip/mplabc32/v2.01/bin/../lib/gcc/pic32mx/4.5.1/../../../../pic32mx/lib\libmchp_peripheral_32MX675F512H.a(int_enable_interrupts_lib.o)
                0x9d02ea10                INTEnableInterrupts

.text.ReadCoreTimer
                0x9d02ea18        0x8
 .text.ReadCoreTimer
                0x9d02ea18        0x8 c:/program files (x86)/microchip/mplabc32/v2.01/bin/../lib/gcc/pic32mx/4.5.1/../../../../pic32mx/lib\libmchp_peripheral_32MX675F512H.a(read_core_timer_lib.o)
                0x9d02ea18                ReadCoreTimer

.rodata         0x9d02e0ec        0x4
 .rodata        0x9d02e0ec        0x4 Object - MDD File System-SD Card\bitbang.o

.text%z143      0x00000000        0x0
 .text          0x00000000        0x0 c:/program files (x86)/microchip/mplabc32/v2.01/bin/../lib/gcc/pic32mx/4.5.1/../../../../pic32mx/lib/./proc/32MX675F512H\processor.o

.text%z144      0x00000000        0x0
 .text          0x00000000        0x0 c:/program files (x86)/microchip/mplabc32/v2.01/bin/../lib/gcc/pic32mx/4.5.1/../../../../pic32mx/lib\libmchp_peripheral_32MX675F512H.a(read_core_timer_lib.o)

.text%z145      0x00000000        0x0
 .text          0x00000000        0x0 c:/program files (x86)/microchip/mplabc32/v2.01/bin/../lib/gcc/pic32mx/4.5.1/../../../../pic32mx/lib\libmchp_peripheral_32MX675F512H.a(_rtcc_wait_clock_off_lib.o)

.text%z146      0x00000000        0x0
 .text          0x00000000        0x0 c:/program files (x86)/microchip/mplabc32/v2.01/bin/../lib/gcc/pic32mx/4.5.1/../../../../pic32mx/lib\libmchp_peripheral_32MX675F512H.a(int_tbl_lib.o)

.text%z147      0x00000000        0x0
 .text          0x00000000        0x0 c:/program files (x86)/microchip/mplabc32/v2.01/bin/../lib/gcc/pic32mx/4.5.1/../../../../pic32mx/lib\libmchp_peripheral_32MX675F512H.a(int_enable_interrupts_lib.o)

.text%z148      0x00000000        0x0
 .text          0x00000000        0x0 c:/program files (x86)/microchip/mplabc32/v2.01/bin/../lib/gcc/pic32mx/4.5.1/../../../../pic32mx/lib\libmchp_peripheral_32MX675F512H.a(spi_brg_tbl_lib_legacy.o)

.text%z149      0x00000000        0x0
 .text          0x00000000        0x0 c:/program files (x86)/microchip/mplabc32/v2.01/bin/../lib/gcc/pic32mx/4.5.1/../../../../pic32mx/lib\libmchp_peripheral_32MX675F512H.a(spi_open_spi2_lib_legacy.o)

.text%z150      0x00000000        0x0
 .text          0x00000000        0x0 c:/program files (x86)/microchip/mplabc32/v2.01/bin/../lib/gcc/pic32mx/4.5.1/../../../../pic32mx/lib\libmchp_peripheral_32MX675F512H.a(spi_getc_spi2_lib_legacy.o)

.text%z151      0x00000000        0x0
 .text          0x00000000        0x0 c:/program files (x86)/microchip/mplabc32/v2.01/bin/../lib/gcc/pic32mx/4.5.1/../../../../pic32mx/lib\libmchp_peripheral_32MX675F512H.a(rtcc_open_lib.o)

.text%z152      0x00000000        0x0
 .text          0x00000000        0x0 c:/program files (x86)/microchip/mplabc32/v2.01/bin/../lib/gcc/pic32mx/4.5.1/../../../../pic32mx/lib\libmchp_peripheral_32MX675F512H.a(int_enable_mv_int_lib.o)

.text%z153      0x00000000        0x0
 .text          0x00000000        0x0 c:/program files (x86)/microchip/mplabc32/v2.01/bin/../lib/gcc/pic32mx/4.5.1/../../../../pic32mx/lib\libmchp_peripheral_32MX675F512H.a(int_restore_interrupts_lib.o)

.text%z154      0x00000000        0x0
 .text          0x00000000        0x0 c:/program files (x86)/microchip/mplabc32/v2.01/bin/../lib/gcc/pic32mx/4.5.1/../../../../pic32mx/lib\libmchp_peripheral_32MX675F512H.a(int_disable_interrupts_lib.o)

.text%z155      0x00000000        0x0
 .text          0x00000000        0x0 c:/program files (x86)/microchip/mplabc32/v2.01/bin/../lib/gcc/pic32mx/4.5.1/../../../../pic32mx/lib\libmchp_peripheral_32MX675F512H.a(pcache.o)

.text%z156      0x00000000        0x0
 .text          0x00000000        0x0 c:/program files (x86)/microchip/mplabc32/v2.01/bin/../lib/gcc/pic32mx/4.5.1/../../../../pic32mx/lib\libc.a(c32_uart.o)

.text%z157      0x00000000        0x0
 .text          0x00000000        0x0 c:/program files (x86)/microchip/mplabc32/v2.01/bin/../lib/gcc/pic32mx/4.5.1/../../../../pic32mx/lib\libc.a(_mon_putc.o)

.text%z158      0x00000000        0x0
 .text          0x00000000        0x0 c:/program files (x86)/microchip/mplabc32/v2.01/bin/../lib/gcc/pic32mx/4.5.1/../../../../pic32mx/lib\libc.a(_flsbuf_simple.o)

.text%z159      0x00000000        0x0
 .text          0x00000000        0x0 c:/program files (x86)/microchip/mplabc32/v2.01/bin/../lib/gcc/pic32mx/4.5.1/../../../../pic32mx/lib\libc.a(_iob.o)

.text%z160      0x00000000        0x0
 .text          0x00000000        0x0 c:/program files (x86)/microchip/mplabc32/v2.01/bin/../lib/gcc/pic32mx/4.5.1/../../../../pic32mx/lib\libc.a(write.o)

.text%z161      0x00000000        0x0
 .text          0x00000000        0x0 c:/program files (x86)/microchip/mplabc32/v2.01/bin/../lib/gcc/pic32mx/4.5.1/../../../../pic32mx/lib\libc.a(_fputc_simple.o)

.text%z162      0x00000000        0x0
 .text          0x00000000        0x0 c:/program files (x86)/microchip/mplabc32/v2.01/bin/../lib/gcc/pic32mx/4.5.1/../../../../pic32mx/lib\libc.a(doprnt_cdnopsuxX.eo)

.text%z163      0x00000000        0x0
 .text          0x00000000        0x0 c:/program files (x86)/microchip/mplabc32/v2.01/bin/../lib/gcc/pic32mx/4.5.1/../../../../pic32mx/lib\libc.a(ctype.o)

.text%z164      0x00000000        0x0
 .text          0x00000000        0x0 c:/program files (x86)/microchip/mplabc32/v2.01/bin/../lib/gcc/pic32mx/4.5.1/../../../../pic32mx/lib\libc.a(default-on-bootstrap.o)

.text%z165      0x00000000        0x0
 .text          0x00000000        0x0 c:/program files (x86)/microchip/mplabc32/v2.01/bin/../lib/gcc/pic32mx/4.5.1/../../../../pic32mx/lib\libc.a(default-on-reset.o)

.text%z166      0x00000000        0x0
 .text          0x00000000        0x0 c:/program files (x86)/microchip/mplabc32/v2.01/bin/../lib/gcc/pic32mx/4.5.1/../../../../pic32mx/lib\libc.a(default-bootstrap-exception-handler.o)

.text%z167      0x00000000        0x0
 .text          0x00000000        0x0 c:/program files (x86)/microchip/mplabc32/v2.01/bin/../lib/gcc/pic32mx/4.5.1/../../../../pic32mx/lib\libc.a(default-general-exception-handler.o)

.text%z168      0x00000000        0x0
 .text          0x00000000        0x0 c:/program files (x86)/microchip/mplabc32/v2.01/bin/../lib/gcc/pic32mx/4.5.1/../../../../pic32mx/lib\libc.a(sprintf_cdnopsuxX.eo)

.text%z169      0x00000000        0x0
 .text          0x00000000        0x0 c:/program files (x86)/microchip/mplabc32/v2.01/bin/../lib/gcc/pic32mx/4.5.1/../../../../pic32mx/lib\libc.a(strncpy.o)

.text%z170      0x00000000        0x0
 .text          0x00000000        0x0 c:/program files (x86)/microchip/mplabc32/v2.01/bin/../lib/gcc/pic32mx/4.5.1/../../../../pic32mx/lib\libc.a(strcat.o)

.text%z171      0x00000000        0x0
 .text          0x00000000        0x0 c:/program files (x86)/microchip/mplabc32/v2.01/bin/../lib/gcc/pic32mx/4.5.1/../../../../pic32mx/lib\libc.a(rand.o)

.text%z172      0x00000000        0x0
 .text          0x00000000        0x0 c:/program files (x86)/microchip/mplabc32/v2.01/bin/../lib/gcc/pic32mx/4.5.1/../../../../pic32mx/lib\libc.a(ctypef.o)

.text%z173      0x00000000        0x0
 .text          0x00000000        0x0 c:/program files (x86)/microchip/mplabc32/v2.01/bin/../lib/gcc/pic32mx/4.5.1/../../../../pic32mx/lib\libc.a(general-exception.o)
